TN:
SF:/usr/include/c++/11/ext/type_traits.h
FN:152,_ZN9__gnu_cxx17__is_null_pointerIcEEbPT_
FNDA:0,_ZN9__gnu_cxx17__is_null_pointerIcEEbPT_
FN:152,_ZN9__gnu_cxx17__is_null_pointerIKcEEbPT_
FNDA:0,_ZN9__gnu_cxx17__is_null_pointerIKcEEbPT_
DA:152,0
DA:153,0
DA:152,0
DA:153,0
end_of_record
SF:/usr/include/c++/11/bits/stl_iterator.h
FN:1027,_ZN9__gnu_cxx17__normal_iteratorIPKNSt7__cxx1112basic_stringIcSt11char_traitsIcESaIcEEESt6vectorIS6_SaIS6_EEEC2ERKS8_
FNDA:334,_ZN9__gnu_cxx17__normal_iteratorIPKNSt7__cxx1112basic_stringIcSt11char_traitsIcESaIcEEESt6vectorIS6_SaIS6_EEEC2ERKS8_
FN:1027,_ZN9__gnu_cxx17__normal_iteratorIPNSt7__cxx1112basic_stringIcSt11char_traitsIcESaIcEEESt6vectorIS6_SaIS6_EEEC2ERKS7_
FNDA:150,_ZN9__gnu_cxx17__normal_iteratorIPNSt7__cxx1112basic_stringIcSt11char_traitsIcESaIcEEESt6vectorIS6_SaIS6_EEEC2ERKS7_
FN:1042,_ZNK9__gnu_cxx17__normal_iteratorIPKNSt7__cxx1112basic_stringIcSt11char_traitsIcESaIcEEESt6vectorIS6_SaIS6_EEEdeEv
FNDA:308,_ZNK9__gnu_cxx17__normal_iteratorIPKNSt7__cxx1112basic_stringIcSt11char_traitsIcESaIcEEESt6vectorIS6_SaIS6_EEEdeEv
FN:1042,_ZNK9__gnu_cxx17__normal_iteratorIPNSt7__cxx1112basic_stringIcSt11char_traitsIcESaIcEEESt6vectorIS6_SaIS6_EEEdeEv
FNDA:90,_ZNK9__gnu_cxx17__normal_iteratorIPNSt7__cxx1112basic_stringIcSt11char_traitsIcESaIcEEESt6vectorIS6_SaIS6_EEEdeEv
FN:1052,_ZN9__gnu_cxx17__normal_iteratorIPKNSt7__cxx1112basic_stringIcSt11char_traitsIcESaIcEEESt6vectorIS6_SaIS6_EEEppEv
FNDA:281,_ZN9__gnu_cxx17__normal_iteratorIPKNSt7__cxx1112basic_stringIcSt11char_traitsIcESaIcEEESt6vectorIS6_SaIS6_EEEppEv
FN:1052,_ZN9__gnu_cxx17__normal_iteratorIPNSt7__cxx1112basic_stringIcSt11char_traitsIcESaIcEEESt6vectorIS6_SaIS6_EEEppEv
FNDA:90,_ZN9__gnu_cxx17__normal_iteratorIPNSt7__cxx1112basic_stringIcSt11char_traitsIcESaIcEEESt6vectorIS6_SaIS6_EEEppEv
FN:1066,_ZN9__gnu_cxx17__normal_iteratorIPNSt7__cxx1112basic_stringIcSt11char_traitsIcESaIcEEESt6vectorIS6_SaIS6_EEEmmEv
FNDA:23,_ZN9__gnu_cxx17__normal_iteratorIPNSt7__cxx1112basic_stringIcSt11char_traitsIcESaIcEEESt6vectorIS6_SaIS6_EEEmmEv
FN:1105,_ZNK9__gnu_cxx17__normal_iteratorIPKNSt7__cxx1112basic_stringIcSt11char_traitsIcESaIcEEESt6vectorIS6_SaIS6_EEE4baseEv
FNDA:1148,_ZNK9__gnu_cxx17__normal_iteratorIPKNSt7__cxx1112basic_stringIcSt11char_traitsIcESaIcEEESt6vectorIS6_SaIS6_EEE4baseEv
FN:1105,_ZNK9__gnu_cxx17__normal_iteratorIPNSt7__cxx1112basic_stringIcSt11char_traitsIcESaIcEEESt6vectorIS6_SaIS6_EEE4baseEv
FNDA:370,_ZNK9__gnu_cxx17__normal_iteratorIPNSt7__cxx1112basic_stringIcSt11char_traitsIcESaIcEEESt6vectorIS6_SaIS6_EEE4baseEv
FN:1163,_ZN9__gnu_cxxeqIPNSt7__cxx1112basic_stringIcSt11char_traitsIcESaIcEEESt6vectorIS6_SaIS6_EEEEbRKNS_17__normal_iteratorIT_T0_EESG_
FNDA:35,_ZN9__gnu_cxxeqIPNSt7__cxx1112basic_stringIcSt11char_traitsIcESaIcEEESt6vectorIS6_SaIS6_EEEEbRKNS_17__normal_iteratorIT_T0_EESG_
FN:1179,_ZN9__gnu_cxxneIPKNSt7__cxx1112basic_stringIcSt11char_traitsIcESaIcEEESt6vectorIS6_SaIS6_EEEEbRKNS_17__normal_iteratorIT_T0_EESH_
FNDA:192,_ZN9__gnu_cxxneIPKNSt7__cxx1112basic_stringIcSt11char_traitsIcESaIcEEESt6vectorIS6_SaIS6_EEEEbRKNS_17__normal_iteratorIT_T0_EESH_
FN:1179,_ZN9__gnu_cxxneIPNSt7__cxx1112basic_stringIcSt11char_traitsIcESaIcEEESt6vectorIS6_SaIS6_EEEEbRKNS_17__normal_iteratorIT_T0_EESG_
FNDA:44,_ZN9__gnu_cxxneIPNSt7__cxx1112basic_stringIcSt11char_traitsIcESaIcEEESt6vectorIS6_SaIS6_EEEEbRKNS_17__normal_iteratorIT_T0_EESG_
FN:1195,_ZN9__gnu_cxxltIPNSt7__cxx1112basic_stringIcSt11char_traitsIcESaIcEEESt6vectorIS6_SaIS6_EEEEbRKNS_17__normal_iteratorIT_T0_EESG_
FNDA:23,_ZN9__gnu_cxxltIPNSt7__cxx1112basic_stringIcSt11char_traitsIcESaIcEEESt6vectorIS6_SaIS6_EEEEbRKNS_17__normal_iteratorIT_T0_EESG_
DA:1027,334
DA:1028,334
DA:1027,150
DA:1028,150
DA:1042,308
DA:1043,308
DA:1042,90
DA:1043,90
DA:1052,281
DA:1054,281
DA:1055,281
DA:1052,90
DA:1054,90
DA:1055,90
DA:1066,23
DA:1068,23
DA:1069,23
DA:1105,1148
DA:1106,1148
DA:1105,370
DA:1106,370
DA:1163,35
DA:1166,35
DA:1179,192
DA:1182,192
DA:1179,44
DA:1182,44
DA:1195,23
DA:1198,23
end_of_record
SF:/usr/include/c++/11/ext/new_allocator.h
FN:79,_ZN9__gnu_cxx13new_allocatorIcEC2Ev
FNDA:0,_ZN9__gnu_cxx13new_allocatorIcEC2Ev
FN:79,_ZN9__gnu_cxx13new_allocatorIPSt4pairINSt7__cxx1112basic_stringIcSt11char_traitsIcESaIcEEES7_EEC2Ev
FNDA:30,_ZN9__gnu_cxx13new_allocatorIPSt4pairINSt7__cxx1112basic_stringIcSt11char_traitsIcESaIcEEES7_EEC2Ev
FN:79,_ZN9__gnu_cxx13new_allocatorIiEC2Ev
FNDA:20,_ZN9__gnu_cxx13new_allocatorIiEC2Ev
FN:79,_ZN9__gnu_cxx13new_allocatorISt4pairINSt7__cxx1112basic_stringIcSt11char_traitsIcESaIcEEES7_EEC2Ev
FNDA:15,_ZN9__gnu_cxx13new_allocatorISt4pairINSt7__cxx1112basic_stringIcSt11char_traitsIcESaIcEEES7_EEC2Ev
FN:79,_ZN9__gnu_cxx13new_allocatorIPiEC2Ev
FNDA:24,_ZN9__gnu_cxx13new_allocatorIPiEC2Ev
FN:82,_ZN9__gnu_cxx13new_allocatorIcEC2ERKS1_
FNDA:0,_ZN9__gnu_cxx13new_allocatorIcEC2ERKS1_
FN:89,_ZN9__gnu_cxx13new_allocatorIcED2Ev
FNDA:0,_ZN9__gnu_cxx13new_allocatorIcED2Ev
FN:89,_ZN9__gnu_cxx13new_allocatorIiED2Ev
FNDA:20,_ZN9__gnu_cxx13new_allocatorIiED2Ev
FN:89,_ZN9__gnu_cxx13new_allocatorISt4pairINSt7__cxx1112basic_stringIcSt11char_traitsIcESaIcEEES7_EED2Ev
FNDA:15,_ZN9__gnu_cxx13new_allocatorISt4pairINSt7__cxx1112basic_stringIcSt11char_traitsIcESaIcEEES7_EED2Ev
FN:89,_ZN9__gnu_cxx13new_allocatorIPiED2Ev
FNDA:24,_ZN9__gnu_cxx13new_allocatorIPiED2Ev
FN:89,_ZN9__gnu_cxx13new_allocatorIPSt4pairINSt7__cxx1112basic_stringIcSt11char_traitsIcESaIcEEES7_EED2Ev
FNDA:30,_ZN9__gnu_cxx13new_allocatorIPSt4pairINSt7__cxx1112basic_stringIcSt11char_traitsIcESaIcEEES7_EED2Ev
FN:103,_ZN9__gnu_cxx13new_allocatorISt4pairINSt7__cxx1112basic_stringIcSt11char_traitsIcESaIcEEES7_EE8allocateEmPKv
FNDA:15,_ZN9__gnu_cxx13new_allocatorISt4pairINSt7__cxx1112basic_stringIcSt11char_traitsIcESaIcEEES7_EE8allocateEmPKv
FN:103,_ZN9__gnu_cxx13new_allocatorIiE8allocateEmPKv
FNDA:37,_ZN9__gnu_cxx13new_allocatorIiE8allocateEmPKv
FN:103,_ZN9__gnu_cxx13new_allocatorIPiE8allocateEmPKv
FNDA:12,_ZN9__gnu_cxx13new_allocatorIPiE8allocateEmPKv
FN:103,_ZN9__gnu_cxx13new_allocatorIPSt4pairINSt7__cxx1112basic_stringIcSt11char_traitsIcESaIcEEES7_EE8allocateEmPKv
FNDA:15,_ZN9__gnu_cxx13new_allocatorIPSt4pairINSt7__cxx1112basic_stringIcSt11char_traitsIcESaIcEEES7_EE8allocateEmPKv
FN:132,_ZN9__gnu_cxx13new_allocatorIPSt4pairINSt7__cxx1112basic_stringIcSt11char_traitsIcESaIcEEES7_EE10deallocateEPS9_m
FNDA:15,_ZN9__gnu_cxx13new_allocatorIPSt4pairINSt7__cxx1112basic_stringIcSt11char_traitsIcESaIcEEES7_EE10deallocateEPS9_m
FN:132,_ZN9__gnu_cxx13new_allocatorIiE10deallocateEPim
FNDA:37,_ZN9__gnu_cxx13new_allocatorIiE10deallocateEPim
FN:132,_ZN9__gnu_cxx13new_allocatorIPiE10deallocateEPS1_m
FNDA:12,_ZN9__gnu_cxx13new_allocatorIPiE10deallocateEPS1_m
FN:132,_ZN9__gnu_cxx13new_allocatorISt4pairINSt7__cxx1112basic_stringIcSt11char_traitsIcESaIcEEES7_EE10deallocateEPS8_m
FNDA:15,_ZN9__gnu_cxx13new_allocatorISt4pairINSt7__cxx1112basic_stringIcSt11char_traitsIcESaIcEEES7_EE10deallocateEPS8_m
FN:154,_ZNK9__gnu_cxx13new_allocatorISt4pairINSt7__cxx1112basic_stringIcSt11char_traitsIcESaIcEEES7_EE8max_sizeEv
FNDA:0,_ZNK9__gnu_cxx13new_allocatorISt4pairINSt7__cxx1112basic_stringIcSt11char_traitsIcESaIcEEES7_EE8max_sizeEv
FN:154,_ZNK9__gnu_cxx13new_allocatorIiE8max_sizeEv
FNDA:50,_ZNK9__gnu_cxx13new_allocatorIiE8max_sizeEv
FN:160,_ZN9__gnu_cxx13new_allocatorISt4pairINSt7__cxx1112basic_stringIcSt11char_traitsIcESaIcEEES7_EE9constructIS8_JS8_EEEvPT_DpOT0_
FNDA:87,_ZN9__gnu_cxx13new_allocatorISt4pairINSt7__cxx1112basic_stringIcSt11char_traitsIcESaIcEEES7_EE9constructIS8_JS8_EEEvPT_DpOT0_
FN:160,_ZN9__gnu_cxx13new_allocatorIiE9constructIiJiEEEvPT_DpOT0_
FNDA:91,_ZN9__gnu_cxx13new_allocatorIiE9constructIiJiEEEvPT_DpOT0_
FN:160,_ZN9__gnu_cxx13new_allocatorIiE9constructIiJRKiEEEvPT_DpOT0_
FNDA:14,_ZN9__gnu_cxx13new_allocatorIiE9constructIiJRKiEEEvPT_DpOT0_
FN:166,_ZN9__gnu_cxx13new_allocatorISt4pairINSt7__cxx1112basic_stringIcSt11char_traitsIcESaIcEEES7_EE7destroyIS8_EEvPT_
FNDA:72,_ZN9__gnu_cxx13new_allocatorISt4pairINSt7__cxx1112basic_stringIcSt11char_traitsIcESaIcEEES7_EE7destroyIS8_EEvPT_
FN:166,_ZN9__gnu_cxx13new_allocatorIiE7destroyIiEEvPT_
FNDA:60,_ZN9__gnu_cxx13new_allocatorIiE7destroyIiEEvPT_
FN:197,_ZNK9__gnu_cxx13new_allocatorIPSt4pairINSt7__cxx1112basic_stringIcSt11char_traitsIcESaIcEEES7_EE11_M_max_sizeEv
FNDA:15,_ZNK9__gnu_cxx13new_allocatorIPSt4pairINSt7__cxx1112basic_stringIcSt11char_traitsIcESaIcEEES7_EE11_M_max_sizeEv
FN:197,_ZNK9__gnu_cxx13new_allocatorISt4pairINSt7__cxx1112basic_stringIcSt11char_traitsIcESaIcEEES7_EE11_M_max_sizeEv
FNDA:15,_ZNK9__gnu_cxx13new_allocatorISt4pairINSt7__cxx1112basic_stringIcSt11char_traitsIcESaIcEEES7_EE11_M_max_sizeEv
FN:197,_ZNK9__gnu_cxx13new_allocatorIiE11_M_max_sizeEv
FNDA:87,_ZNK9__gnu_cxx13new_allocatorIiE11_M_max_sizeEv
FN:197,_ZNK9__gnu_cxx13new_allocatorIPiE11_M_max_sizeEv
FNDA:12,_ZNK9__gnu_cxx13new_allocatorIPiE11_M_max_sizeEv
DA:79,30
DA:79,24
DA:79,15
DA:79,20
DA:79,0
DA:82,0
DA:89,30
DA:89,24
DA:89,15
DA:89,20
DA:89,0
DA:103,15
DA:111,15
DA:115,0
DA:116,0
DA:117,0
DA:127,15
DA:103,15
DA:111,15
DA:115,0
DA:116,0
DA:117,0
DA:127,15
DA:103,37
DA:111,37
DA:115,0
DA:116,0
DA:117,0
DA:127,37
DA:103,12
DA:111,12
DA:115,0
DA:116,0
DA:117,0
DA:127,12
DA:132,15
DA:145,15
DA:150,15
DA:132,37
DA:145,37
DA:150,37
DA:132,15
DA:145,15
DA:150,15
DA:132,12
DA:145,12
DA:150,12
DA:154,0
DA:155,0
DA:154,50
DA:155,50
DA:160,87
DA:162,87
DA:160,91
DA:162,91
DA:160,14
DA:162,14
DA:166,72
DA:168,72
DA:166,60
DA:168,60
DA:197,15
DA:200,15
DA:197,15
DA:200,15
DA:197,87
DA:200,87
DA:197,12
DA:200,12
end_of_record
SF:/usr/include/c++/11/bits/stl_construct.h
FN:146,_ZSt8_DestroyISt4pairINSt7__cxx1112basic_stringIcSt11char_traitsIcESaIcEEES6_EEvPT_
FNDA:15,_ZSt8_DestroyISt4pairINSt7__cxx1112basic_stringIcSt11char_traitsIcESaIcEEES6_EEvPT_
FN:160,_ZNSt12_Destroy_auxILb0EE9__destroyIPSt4pairINSt7__cxx1112basic_stringIcSt11char_traitsIcESaIcEEES8_EEEvT_SB_
FNDA:15,_ZNSt12_Destroy_auxILb0EE9__destroyIPSt4pairINSt7__cxx1112basic_stringIcSt11char_traitsIcESaIcEEES8_EEEvT_SB_
FN:182,_ZSt8_DestroyIPSt4pairINSt7__cxx1112basic_stringIcSt11char_traitsIcESaIcEEES6_EEvT_S9_
FNDA:15,_ZSt8_DestroyIPSt4pairINSt7__cxx1112basic_stringIcSt11char_traitsIcESaIcEEES6_EEvT_S9_
DA:146,15
DA:151,15
DA:153,15
DA:160,15
DA:162,30
DA:163,15
DA:164,15
DA:182,15
DA:196,15
DA:197,15
end_of_record
SF:/usr/include/c++/11/bits/stl_deque.h
FN:96,_ZSt16__deque_buf_sizem
FNDA:162,_ZSt16__deque_buf_sizem
FN:131,_ZNSt15_Deque_iteratorISt4pairINSt7__cxx1112basic_stringIcSt11char_traitsIcESaIcEEES6_ERS7_PS7_E14_S_buffer_sizeEv
FNDA:30,_ZNSt15_Deque_iteratorISt4pairINSt7__cxx1112basic_stringIcSt11char_traitsIcESaIcEEES6_ERS7_PS7_E14_S_buffer_sizeEv
FN:131,_ZNSt15_Deque_iteratorIiRiPiE14_S_buffer_sizeEv
FNDA:24,_ZNSt15_Deque_iteratorIiRiPiE14_S_buffer_sizeEv
FN:151,_ZNSt15_Deque_iteratorISt4pairINSt7__cxx1112basic_stringIcSt11char_traitsIcESaIcEEES6_ERS7_PS7_EC2Ev
FNDA:30,_ZNSt15_Deque_iteratorISt4pairINSt7__cxx1112basic_stringIcSt11char_traitsIcESaIcEEES6_ERS7_PS7_EC2Ev
FN:151,_ZNSt15_Deque_iteratorIiRiPiEC2Ev
FNDA:24,_ZNSt15_Deque_iteratorIiRiPiEC2Ev
FN:168,_ZNSt15_Deque_iteratorIiRiPiEC2ERKS2_
FNDA:96,_ZNSt15_Deque_iteratorIiRiPiEC2ERKS2_
FN:168,_ZNSt15_Deque_iteratorISt4pairINSt7__cxx1112basic_stringIcSt11char_traitsIcESaIcEEES6_ERS7_PS7_EC2ERKSA_
FNDA:147,_ZNSt15_Deque_iteratorISt4pairINSt7__cxx1112basic_stringIcSt11char_traitsIcESaIcEEES6_ERS7_PS7_EC2ERKSA_
FN:180,_ZNKSt15_Deque_iteratorIiRiPiEdeEv
FNDA:72,_ZNKSt15_Deque_iteratorIiRiPiEdeEv
FN:180,_ZNKSt15_Deque_iteratorISt4pairINSt7__cxx1112basic_stringIcSt11char_traitsIcESaIcEEES6_ERS7_PS7_EdeEv
FNDA:87,_ZNKSt15_Deque_iteratorISt4pairINSt7__cxx1112basic_stringIcSt11char_traitsIcESaIcEEES6_ERS7_PS7_EdeEv
FN:208,_ZNSt15_Deque_iteratorIiRiPiEmmEv
FNDA:72,_ZNSt15_Deque_iteratorIiRiPiEmmEv
FN:208,_ZNSt15_Deque_iteratorISt4pairINSt7__cxx1112basic_stringIcSt11char_traitsIcESaIcEEES6_ERS7_PS7_EmmEv
FNDA:87,_ZNSt15_Deque_iteratorISt4pairINSt7__cxx1112basic_stringIcSt11char_traitsIcESaIcEEES6_ERS7_PS7_EmmEv
FN:260,_ZNSt15_Deque_iteratorIiRiPiE11_M_set_nodeEPS1_
FNDA:24,_ZNSt15_Deque_iteratorIiRiPiE11_M_set_nodeEPS1_
FN:260,_ZNSt15_Deque_iteratorISt4pairINSt7__cxx1112basic_stringIcSt11char_traitsIcESaIcEEES6_ERS7_PS7_E11_M_set_nodeEPS9_
FNDA:30,_ZNSt15_Deque_iteratorISt4pairINSt7__cxx1112basic_stringIcSt11char_traitsIcESaIcEEES6_ERS7_PS7_E11_M_set_nodeEPS9_
FN:353,_ZStmiRKSt15_Deque_iteratorISt4pairINSt7__cxx1112basic_stringIcSt11char_traitsIcESaIcEEES6_ERS7_PS7_ESC_
FNDA:0,_ZStmiRKSt15_Deque_iteratorISt4pairINSt7__cxx1112basic_stringIcSt11char_traitsIcESaIcEEES6_ERS7_PS7_ESC_
FN:353,_ZStmiRKSt15_Deque_iteratorIiRiPiES4_
FNDA:0,_ZStmiRKSt15_Deque_iteratorIiRiPiES4_
FN:437,_ZNSt11_Deque_baseIiSaIiEEC2Ev
FNDA:12,_ZNSt11_Deque_baseIiSaIiEEC2Ev
FN:437,_ZNSt11_Deque_baseISt4pairINSt7__cxx1112basic_stringIcSt11char_traitsIcESaIcEEES6_ESaIS7_EEC2Ev
FNDA:15,_ZNSt11_Deque_baseISt4pairINSt7__cxx1112basic_stringIcSt11char_traitsIcESaIcEEES6_ESaIS7_EEC2Ev
FN:495,_ZNSt11_Deque_baseISt4pairINSt7__cxx1112basic_stringIcSt11char_traitsIcESaIcEEES6_ESaIS7_EE16_Deque_impl_dataC2Ev
FNDA:15,_ZNSt11_Deque_baseISt4pairINSt7__cxx1112basic_stringIcSt11char_traitsIcESaIcEEES6_ESaIS7_EE16_Deque_impl_dataC2Ev
FN:495,_ZNSt11_Deque_baseIiSaIiEE16_Deque_impl_dataC2Ev
FNDA:12,_ZNSt11_Deque_baseIiSaIiEE16_Deque_impl_dataC2Ev
FN:524,_ZNSt11_Deque_baseISt4pairINSt7__cxx1112basic_stringIcSt11char_traitsIcESaIcEEES6_ESaIS7_EE11_Deque_implC2Ev
FNDA:15,_ZNSt11_Deque_baseISt4pairINSt7__cxx1112basic_stringIcSt11char_traitsIcESaIcEEES6_ESaIS7_EE11_Deque_implC2Ev
FN:524,_ZNSt11_Deque_baseIiSaIiEE11_Deque_implC2Ev
FNDA:12,_ZNSt11_Deque_baseIiSaIiEE11_Deque_implC2Ev
FN:547,_ZNSt11_Deque_baseISt4pairINSt7__cxx1112basic_stringIcSt11char_traitsIcESaIcEEES6_ESaIS7_EE19_M_get_Tp_allocatorEv
FNDA:102,_ZNSt11_Deque_baseISt4pairINSt7__cxx1112basic_stringIcSt11char_traitsIcESaIcEEES6_ESaIS7_EE19_M_get_Tp_allocatorEv
FN:547,_ZNSt11_Deque_baseIiSaIiEE19_M_get_Tp_allocatorEv
FNDA:72,_ZNSt11_Deque_baseIiSaIiEE19_M_get_Tp_allocatorEv
FN:551,_ZNKSt11_Deque_baseISt4pairINSt7__cxx1112basic_stringIcSt11char_traitsIcESaIcEEES6_ESaIS7_EE19_M_get_Tp_allocatorEv
FNDA:30,_ZNKSt11_Deque_baseISt4pairINSt7__cxx1112basic_stringIcSt11char_traitsIcESaIcEEES6_ESaIS7_EE19_M_get_Tp_allocatorEv
FN:551,_ZNKSt11_Deque_baseIiSaIiEE19_M_get_Tp_allocatorEv
FNDA:24,_ZNKSt11_Deque_baseIiSaIiEE19_M_get_Tp_allocatorEv
FN:555,_ZNKSt11_Deque_baseISt4pairINSt7__cxx1112basic_stringIcSt11char_traitsIcESaIcEEES6_ESaIS7_EE20_M_get_map_allocatorEv
FNDA:30,_ZNKSt11_Deque_baseISt4pairINSt7__cxx1112basic_stringIcSt11char_traitsIcESaIcEEES6_ESaIS7_EE20_M_get_map_allocatorEv
FN:555,_ZNKSt11_Deque_baseIiSaIiEE20_M_get_map_allocatorEv
FNDA:24,_ZNKSt11_Deque_baseIiSaIiEE20_M_get_map_allocatorEv
FN:559,_ZNSt11_Deque_baseIiSaIiEE16_M_allocate_nodeEv
FNDA:12,_ZNSt11_Deque_baseIiSaIiEE16_M_allocate_nodeEv
FN:559,_ZNSt11_Deque_baseISt4pairINSt7__cxx1112basic_stringIcSt11char_traitsIcESaIcEEES6_ESaIS7_EE16_M_allocate_nodeEv
FNDA:15,_ZNSt11_Deque_baseISt4pairINSt7__cxx1112basic_stringIcSt11char_traitsIcESaIcEEES6_ESaIS7_EE16_M_allocate_nodeEv
FN:566,_ZNSt11_Deque_baseIiSaIiEE18_M_deallocate_nodeEPi
FNDA:12,_ZNSt11_Deque_baseIiSaIiEE18_M_deallocate_nodeEPi
FN:566,_ZNSt11_Deque_baseISt4pairINSt7__cxx1112basic_stringIcSt11char_traitsIcESaIcEEES6_ESaIS7_EE18_M_deallocate_nodeEPS7_
FNDA:15,_ZNSt11_Deque_baseISt4pairINSt7__cxx1112basic_stringIcSt11char_traitsIcESaIcEEES6_ESaIS7_EE18_M_deallocate_nodeEPS7_
FN:573,_ZNSt11_Deque_baseIiSaIiEE15_M_allocate_mapEm
FNDA:12,_ZNSt11_Deque_baseIiSaIiEE15_M_allocate_mapEm
FN:573,_ZNSt11_Deque_baseISt4pairINSt7__cxx1112basic_stringIcSt11char_traitsIcESaIcEEES6_ESaIS7_EE15_M_allocate_mapEm
FNDA:15,_ZNSt11_Deque_baseISt4pairINSt7__cxx1112basic_stringIcSt11char_traitsIcESaIcEEES6_ESaIS7_EE15_M_allocate_mapEm
FN:580,_ZNSt11_Deque_baseISt4pairINSt7__cxx1112basic_stringIcSt11char_traitsIcESaIcEEES6_ESaIS7_EE17_M_deallocate_mapEPPS7_m
FNDA:15,_ZNSt11_Deque_baseISt4pairINSt7__cxx1112basic_stringIcSt11char_traitsIcESaIcEEES6_ESaIS7_EE17_M_deallocate_mapEPPS7_m
FN:580,_ZNSt11_Deque_baseIiSaIiEE17_M_deallocate_mapEPPim
FNDA:12,_ZNSt11_Deque_baseIiSaIiEE17_M_deallocate_mapEPPim
FN:596,_ZNSt11_Deque_baseISt4pairINSt7__cxx1112basic_stringIcSt11char_traitsIcESaIcEEES6_ESaIS7_EED2Ev
FNDA:15,_ZNSt11_Deque_baseISt4pairINSt7__cxx1112basic_stringIcSt11char_traitsIcESaIcEEES6_ESaIS7_EED2Ev
FN:596,_ZNSt11_Deque_baseIiSaIiEED2Ev
FNDA:12,_ZNSt11_Deque_baseIiSaIiEED2Ev
FN:617,_ZNSt11_Deque_baseIiSaIiEE17_M_initialize_mapEm
FNDA:12,_ZNSt11_Deque_baseIiSaIiEE17_M_initialize_mapEm
FN:617,_ZNSt11_Deque_baseISt4pairINSt7__cxx1112basic_stringIcSt11char_traitsIcESaIcEEES6_ESaIS7_EE17_M_initialize_mapEm
FNDA:15,_ZNSt11_Deque_baseISt4pairINSt7__cxx1112basic_stringIcSt11char_traitsIcESaIcEEES6_ESaIS7_EE17_M_initialize_mapEm
FN:656,_ZNSt11_Deque_baseISt4pairINSt7__cxx1112basic_stringIcSt11char_traitsIcESaIcEEES6_ESaIS7_EE15_M_create_nodesEPPS7_SB_
FNDA:15,_ZNSt11_Deque_baseISt4pairINSt7__cxx1112basic_stringIcSt11char_traitsIcESaIcEEES6_ESaIS7_EE15_M_create_nodesEPPS7_SB_
FN:656,_ZNSt11_Deque_baseIiSaIiEE15_M_create_nodesEPPiS3_
FNDA:12,_ZNSt11_Deque_baseIiSaIiEE15_M_create_nodesEPPiS3_
FN:674,_ZNSt11_Deque_baseIiSaIiEE16_M_destroy_nodesEPPiS3_
FNDA:12,_ZNSt11_Deque_baseIiSaIiEE16_M_destroy_nodesEPPiS3_
FN:674,_ZNSt11_Deque_baseISt4pairINSt7__cxx1112basic_stringIcSt11char_traitsIcESaIcEEES6_ESaIS7_EE16_M_destroy_nodesEPPS7_SB_
FNDA:15,_ZNSt11_Deque_baseISt4pairINSt7__cxx1112basic_stringIcSt11char_traitsIcESaIcEEES6_ESaIS7_EE16_M_destroy_nodesEPPS7_SB_
FN:807,_ZNSt5dequeISt4pairINSt7__cxx1112basic_stringIcSt11char_traitsIcESaIcEEES6_ESaIS7_EE14_S_buffer_sizeEv
FNDA:0,_ZNSt5dequeISt4pairINSt7__cxx1112basic_stringIcSt11char_traitsIcESaIcEEES6_ESaIS7_EE14_S_buffer_sizeEv
FN:834,_ZNSt5dequeIiSaIiEEC2Ev
FNDA:12,_ZNSt5dequeIiSaIiEEC2Ev
FN:834,_ZNSt5dequeISt4pairINSt7__cxx1112basic_stringIcSt11char_traitsIcESaIcEEES6_ESaIS7_EEC2Ev
FNDA:15,_ZNSt5dequeISt4pairINSt7__cxx1112basic_stringIcSt11char_traitsIcESaIcEEES6_ESaIS7_EEC2Ev
FN:1006,_ZNSt5dequeIiSaIiEED2Ev
FNDA:12,_ZNSt5dequeIiSaIiEED2Ev
FN:1006,_ZNSt5dequeISt4pairINSt7__cxx1112basic_stringIcSt11char_traitsIcESaIcEEES6_ESaIS7_EED2Ev
FNDA:15,_ZNSt5dequeISt4pairINSt7__cxx1112basic_stringIcSt11char_traitsIcESaIcEEES6_ESaIS7_EED2Ev
FN:1128,_ZNSt5dequeIiSaIiEE5beginEv
FNDA:12,_ZNSt5dequeIiSaIiEE5beginEv
FN:1128,_ZNSt5dequeISt4pairINSt7__cxx1112basic_stringIcSt11char_traitsIcESaIcEEES6_ESaIS7_EE5beginEv
FNDA:15,_ZNSt5dequeISt4pairINSt7__cxx1112basic_stringIcSt11char_traitsIcESaIcEEES6_ESaIS7_EE5beginEv
FN:1145,_ZNSt5dequeISt4pairINSt7__cxx1112basic_stringIcSt11char_traitsIcESaIcEEES6_ESaIS7_EE3endEv
FNDA:102,_ZNSt5dequeISt4pairINSt7__cxx1112basic_stringIcSt11char_traitsIcESaIcEEES6_ESaIS7_EE3endEv
FN:1145,_ZNSt5dequeIiSaIiEE3endEv
FNDA:84,_ZNSt5dequeIiSaIiEE3endEv
FN:1233,_ZNKSt5dequeIiSaIiEE4sizeEv
FNDA:0,_ZNKSt5dequeIiSaIiEE4sizeEv
FN:1233,_ZNKSt5dequeISt4pairINSt7__cxx1112basic_stringIcSt11char_traitsIcESaIcEEES6_ESaIS7_EE4sizeEv
FNDA:0,_ZNKSt5dequeISt4pairINSt7__cxx1112basic_stringIcSt11char_traitsIcESaIcEEES6_ESaIS7_EE4sizeEv
FN:1238,_ZNKSt5dequeISt4pairINSt7__cxx1112basic_stringIcSt11char_traitsIcESaIcEEES6_ESaIS7_EE8max_sizeEv
FNDA:0,_ZNKSt5dequeISt4pairINSt7__cxx1112basic_stringIcSt11char_traitsIcESaIcEEES6_ESaIS7_EE8max_sizeEv
FN:1238,_ZNKSt5dequeIiSaIiEE8max_sizeEv
FNDA:0,_ZNKSt5dequeIiSaIiEE8max_sizeEv
FN:1427,_ZNSt5dequeIiSaIiEE4backEv
FNDA:72,_ZNSt5dequeIiSaIiEE4backEv
FN:1427,_ZNSt5dequeISt4pairINSt7__cxx1112basic_stringIcSt11char_traitsIcESaIcEEES6_ESaIS7_EE4backEv
FNDA:87,_ZNSt5dequeISt4pairINSt7__cxx1112basic_stringIcSt11char_traitsIcESaIcEEES6_ESaIS7_EE4backEv
FN:1496,_ZNSt5dequeIiSaIiEE9push_backERKi
FNDA:14,_ZNSt5dequeIiSaIiEE9push_backERKi
FN:1511,_ZNSt5dequeIiSaIiEE9push_backEOi
FNDA:58,_ZNSt5dequeIiSaIiEE9push_backEOi
FN:1511,_ZNSt5dequeISt4pairINSt7__cxx1112basic_stringIcSt11char_traitsIcESaIcEEES6_ESaIS7_EE9push_backEOS7_
FNDA:87,_ZNSt5dequeISt4pairINSt7__cxx1112basic_stringIcSt11char_traitsIcESaIcEEES6_ESaIS7_EE9push_backEOS7_
FN:1555,_ZNSt5dequeIiSaIiEE8pop_backEv
FNDA:60,_ZNSt5dequeIiSaIiEE8pop_backEv
FN:1555,_ZNSt5dequeISt4pairINSt7__cxx1112basic_stringIcSt11char_traitsIcESaIcEEES6_ESaIS7_EE8pop_backEv
FNDA:72,_ZNSt5dequeISt4pairINSt7__cxx1112basic_stringIcSt11char_traitsIcESaIcEEES6_ESaIS7_EE8pop_backEv
FN:1834,_ZNSt5dequeIiSaIiEE11_S_max_sizeERKS0_
FNDA:0,_ZNSt5dequeIiSaIiEE11_S_max_sizeERKS0_
FN:1834,_ZNSt5dequeISt4pairINSt7__cxx1112basic_stringIcSt11char_traitsIcESaIcEEES6_ESaIS7_EE11_S_max_sizeERKS8_
FNDA:0,_ZNSt5dequeISt4pairINSt7__cxx1112basic_stringIcSt11char_traitsIcESaIcEEES6_ESaIS7_EE11_S_max_sizeERKS8_
FN:2045,_ZNSt5dequeIiSaIiEE15_M_destroy_dataESt15_Deque_iteratorIiRiPiES5_RKS0_
FNDA:12,_ZNSt5dequeIiSaIiEE15_M_destroy_dataESt15_Deque_iteratorIiRiPiES5_RKS0_
FN:2045,_ZNSt5dequeISt4pairINSt7__cxx1112basic_stringIcSt11char_traitsIcESaIcEEES6_ESaIS7_EE15_M_destroy_dataESt15_Deque_iteratorIS7_RS7_PS7_ESD_RKS8_
FNDA:15,_ZNSt5dequeISt4pairINSt7__cxx1112basic_stringIcSt11char_traitsIcESaIcEEES6_ESaIS7_EE15_M_destroy_dataESt15_Deque_iteratorIS7_RS7_PS7_ESD_RKS8_
FN:2126,_ZNSt5dequeISt4pairINSt7__cxx1112basic_stringIcSt11char_traitsIcESaIcEEES6_ESaIS7_EE22_M_reserve_map_at_backEm
FNDA:0,_ZNSt5dequeISt4pairINSt7__cxx1112basic_stringIcSt11char_traitsIcESaIcEEES6_ESaIS7_EE22_M_reserve_map_at_backEm
FN:2126,_ZNSt5dequeIiSaIiEE22_M_reserve_map_at_backEm
FNDA:0,_ZNSt5dequeIiSaIiEE22_M_reserve_map_at_backEm
DA:96,162
DA:98,162
DA:131,30
DA:132,30
DA:131,24
DA:132,24
DA:151,30
DA:152,30
DA:151,24
DA:152,24
DA:168,147
DA:169,147
DA:170,147
DA:168,96
DA:169,96
DA:170,96
DA:180,87
DA:181,87
DA:180,72
DA:181,72
DA:208,87
DA:210,87
DA:212,0
DA:213,0
DA:215,87
DA:216,87
DA:208,72
DA:210,72
DA:212,0
DA:213,0
DA:215,72
DA:216,72
DA:260,30
DA:262,30
DA:263,30
DA:264,30
DA:265,30
DA:260,24
DA:262,24
DA:263,24
DA:264,24
DA:265,24
DA:353,0
DA:355,0
DA:356,0
DA:357,0
DA:358,0
DA:353,0
DA:355,0
DA:356,0
DA:357,0
DA:358,0
DA:437,15
DA:438,15
DA:439,15
DA:437,12
DA:438,12
DA:439,12
DA:495,15
DA:496,15
DA:497,15
DA:495,12
DA:496,12
DA:497,12
DA:524,15
DA:526,15
DA:527,15
DA:524,12
DA:526,12
DA:527,12
DA:547,102
DA:548,102
DA:547,72
DA:548,72
DA:551,30
DA:552,30
DA:551,24
DA:552,24
DA:555,30
DA:556,30
DA:555,24
DA:556,24
DA:559,15
DA:562,15
DA:559,12
DA:562,12
DA:566,15
DA:569,15
DA:570,15
DA:566,12
DA:569,12
DA:570,12
DA:573,15
DA:575,15
DA:576,30
DA:577,15
DA:573,12
DA:575,12
DA:576,24
DA:577,12
DA:580,15
DA:582,15
DA:583,15
DA:584,15
DA:580,12
DA:582,12
DA:583,12
DA:584,12
DA:596,15
DA:599,15
DA:601,15
DA:602,15
DA:603,15
DA:605,15
DA:596,12
DA:599,12
DA:601,12
DA:602,12
DA:603,12
DA:605,12
DA:617,15
DA:620,15
DA:623,30
DA:624,15
DA:625,15
DA:632,15
DA:633,15
DA:634,15
DA:637,15
DA:638,0
DA:640,0
DA:641,0
DA:642,0
DA:643,0
DA:646,15
DA:647,15
DA:648,15
DA:649,30
DA:650,15
DA:651,15
DA:652,15
DA:617,12
DA:620,12
DA:623,24
DA:624,12
DA:625,12
DA:632,12
DA:633,12
DA:634,12
DA:637,12
DA:638,0
DA:640,0
DA:641,0
DA:642,0
DA:643,0
DA:646,12
DA:647,12
DA:648,12
DA:649,24
DA:650,12
DA:651,12
DA:652,12
DA:656,15
DA:662,30
DA:663,15
DA:665,0
DA:667,0
DA:668,0
DA:670,15
DA:656,12
DA:662,24
DA:663,12
DA:665,0
DA:667,0
DA:668,0
DA:670,12
DA:674,15
DA:678,30
DA:679,15
DA:680,15
DA:674,12
DA:678,24
DA:679,12
DA:680,12
DA:807,0
DA:808,0
DA:834,15
DA:834,12
DA:1006,15
DA:1007,15
DA:1006,12
DA:1007,12
DA:1128,15
DA:1129,15
DA:1128,12
DA:1129,12
DA:1145,102
DA:1146,102
DA:1145,84
DA:1146,84
DA:1233,0
DA:1234,0
DA:1233,0
DA:1234,0
DA:1238,0
DA:1239,0
DA:1238,0
DA:1239,0
DA:1427,87
DA:1430,87
DA:1431,87
DA:1432,87
DA:1427,72
DA:1430,72
DA:1431,72
DA:1432,72
DA:1496,14
DA:1498,14
DA:1499,14
DA:1501,14
DA:1503,14
DA:1506,0
DA:1507,14
DA:1511,87
DA:1512,87
DA:1511,58
DA:1512,58
DA:1555,72
DA:1558,72
DA:1559,72
DA:1561,72
DA:1562,72
DA:1566,0
DA:1567,72
DA:1555,60
DA:1558,60
DA:1559,60
DA:1561,60
DA:1562,60
DA:1566,0
DA:1567,60
DA:1834,0
DA:1836,0
DA:1837,0
DA:1838,0
DA:1834,0
DA:1836,0
DA:1837,0
DA:1838,0
DA:2045,15
DA:2049,15
DA:2050,15
DA:2045,12
DA:2050,12
DA:2126,0
DA:2128,0
DA:2129,0
DA:2130,0
DA:2131,0
DA:2126,0
DA:2128,0
DA:2129,0
DA:2130,0
DA:2131,0
end_of_record
SF:/usr/include/c++/11/bits/stl_stack.h
FN:162,_ZNSt5stackISt4pairINSt7__cxx1112basic_stringIcSt11char_traitsIcESaIcEEES6_ESt5dequeIS7_SaIS7_EEEC2ISA_vEEv
FNDA:15,_ZNSt5stackISt4pairINSt7__cxx1112basic_stringIcSt11char_traitsIcESaIcEEES6_ESt5dequeIS7_SaIS7_EEEC2ISA_vEEv
FN:162,_ZNSt5stackIiSt5dequeIiSaIiEEEC2IS2_vEEv
FNDA:12,_ZNSt5stackIiSt5dequeIiSaIiEEEC2IS2_vEEv
FN:212,_ZNSt5stackISt4pairINSt7__cxx1112basic_stringIcSt11char_traitsIcESaIcEEES6_ESt5dequeIS7_SaIS7_EEE3topEv
FNDA:87,_ZNSt5stackISt4pairINSt7__cxx1112basic_stringIcSt11char_traitsIcESaIcEEES6_ESt5dequeIS7_SaIS7_EEE3topEv
FN:212,_ZNSt5stackIiSt5dequeIiSaIiEEE3topEv
FNDA:72,_ZNSt5stackIiSt5dequeIiSaIiEEE3topEv
FN:239,_ZNSt5stackIiSt5dequeIiSaIiEEE4pushERKi
FNDA:14,_ZNSt5stackIiSt5dequeIiSaIiEEE4pushERKi
FN:244,_ZNSt5stackISt4pairINSt7__cxx1112basic_stringIcSt11char_traitsIcESaIcEEES6_ESt5dequeIS7_SaIS7_EEE4pushEOS7_
FNDA:87,_ZNSt5stackISt4pairINSt7__cxx1112basic_stringIcSt11char_traitsIcESaIcEEES6_ESt5dequeIS7_SaIS7_EEE4pushEOS7_
FN:244,_ZNSt5stackIiSt5dequeIiSaIiEEE4pushEOi
FNDA:58,_ZNSt5stackIiSt5dequeIiSaIiEEE4pushEOi
FN:272,_ZNSt5stackISt4pairINSt7__cxx1112basic_stringIcSt11char_traitsIcESaIcEEES6_ESt5dequeIS7_SaIS7_EEE3popEv
FNDA:72,_ZNSt5stackISt4pairINSt7__cxx1112basic_stringIcSt11char_traitsIcESaIcEEES6_ESt5dequeIS7_SaIS7_EEE3popEv
FN:272,_ZNSt5stackIiSt5dequeIiSaIiEEE3popEv
FNDA:60,_ZNSt5stackIiSt5dequeIiSaIiEEE3popEv
DA:162,15
DA:163,15
DA:162,12
DA:163,12
DA:212,87
DA:215,87
DA:212,72
DA:215,72
DA:239,14
DA:240,14
DA:244,87
DA:245,87
DA:244,58
DA:245,58
DA:272,72
DA:275,72
DA:276,72
DA:272,60
DA:275,60
DA:276,60
end_of_record
SF:/usr/include/c++/11/ext/string_conversions.h
FN:54,_ZN9__gnu_cxx6__stoaIlicJiEEET0_PFT_PKT1_PPS3_DpT2_EPKcS5_PmS9_
FNDA:42,_ZN9__gnu_cxx6__stoaIlicJiEEET0_PFT_PKT1_PPS3_DpT2_EPKcS5_PmS9_
FN:63,_ZZN9__gnu_cxx6__stoaIlicJiEEET0_PFT_PKT1_PPS3_DpT2_EPKcS5_PmS9_EN11_Save_errnoC2Ev
FNDA:42,_ZZN9__gnu_cxx6__stoaIlicJiEEET0_PFT_PKT1_PPS3_DpT2_EPKcS5_PmS9_EN11_Save_errnoC2Ev
FN:64,_ZZN9__gnu_cxx6__stoaIlicJiEEET0_PFT_PKT1_PPS3_DpT2_EPKcS5_PmS9_EN11_Save_errnoD2Ev
FNDA:42,_ZZN9__gnu_cxx6__stoaIlicJiEEET0_PFT_PKT1_PPS3_DpT2_EPKcS5_PmS9_EN11_Save_errnoD2Ev
FN:73,_ZZN9__gnu_cxx6__stoaIlicJiEEET0_PFT_PKT1_PPS3_DpT2_EPKcS5_PmS9_EN10_Range_chk6_S_chkElSt17integral_constantIbLb1EE
FNDA:42,_ZZN9__gnu_cxx6__stoaIlicJiEEET0_PFT_PKT1_PPS3_DpT2_EPKcS5_PmS9_EN10_Range_chk6_S_chkElSt17integral_constantIbLb1EE
DA:54,42
DA:63,42
DA:64,42
DA:66,42
DA:73,42
DA:76,42
DA:80,42
DA:82,42
DA:83,0
DA:84,84
DA:85,42
DA:86,0
DA:88,42
DA:90,42
DA:91,0
DA:93,42
DA:94,42
end_of_record
SF:/usr/include/c++/11/ext/alloc_traits.h
FN:97,_ZN9__gnu_cxx14__alloc_traitsISaIcEcE17_S_select_on_copyERKS1_
FNDA:11,_ZN9__gnu_cxx14__alloc_traitsISaIcEcE17_S_select_on_copyERKS1_
DA:97,11
DA:98,11
end_of_record
SF:/usr/include/c++/11/bits/basic_string.tcc
FN:206,_ZNSt7__cxx1112basic_stringIcSt11char_traitsIcESaIcEE12_M_constructIPcEEvT_S7_St20forward_iterator_tag
FNDA:0,_ZNSt7__cxx1112basic_stringIcSt11char_traitsIcESaIcEE12_M_constructIPcEEvT_S7_St20forward_iterator_tag
FN:206,_ZNSt7__cxx1112basic_stringIcSt11char_traitsIcESaIcEE12_M_constructIPKcEEvT_S8_St20forward_iterator_tag
FNDA:0,_ZNSt7__cxx1112basic_stringIcSt11char_traitsIcESaIcEE12_M_constructIPKcEEvT_S8_St20forward_iterator_tag
FN:1169,_ZStplIcSt11char_traitsIcESaIcEENSt7__cxx1112basic_stringIT_T0_T1_EEPKS5_RKS8_
FNDA:11,_ZStplIcSt11char_traitsIcESaIcEENSt7__cxx1112basic_stringIT_T0_T1_EEPKS5_RKS8_
DA:206,0
DA:211,0
DA:212,0
DA:215,0
DA:217,0
DA:219,0
DA:220,0
DA:225,0
DA:226,0
DA:228,0
DA:229,0
DA:232,0
DA:233,0
DA:206,0
DA:211,0
DA:212,0
DA:215,0
DA:217,0
DA:219,0
DA:220,0
DA:225,0
DA:226,0
DA:228,0
DA:229,0
DA:232,0
DA:233,0
DA:1169,11
DA:1178,11
DA:1179,22
DA:1181,11
DA:1182,11
DA:1183,11
DA:1184,11
DA:1185,0
end_of_record
SF:/usr/include/c++/11/new
FN:174,_ZnwmPv
FNDA:508,_ZnwmPv
DA:174,508
DA:175,508
end_of_record
SF:/usr/include/c++/11/bits/basic_string.h
FN:251,_ZNSt7__cxx1112basic_stringIcSt11char_traitsIcESaIcEE16_M_construct_auxIPcEEvT_S7_St12__false_type
FNDA:0,_ZNSt7__cxx1112basic_stringIcSt11char_traitsIcESaIcEE16_M_construct_auxIPcEEvT_S7_St12__false_type
FN:271,_ZNSt7__cxx1112basic_stringIcSt11char_traitsIcESaIcEE12_M_constructIPcEEvT_S7_
FNDA:0,_ZNSt7__cxx1112basic_stringIcSt11char_traitsIcESaIcEE12_M_constructIPcEEvT_S7_
FN:6132,_ZStplIcSt11char_traitsIcESaIcEENSt7__cxx1112basic_stringIT_T0_T1_EERKS8_PKS5_
FNDA:63,_ZStplIcSt11char_traitsIcESaIcEENSt7__cxx1112basic_stringIT_T0_T1_EERKS8_PKS5_
FN:6160,_ZStplIcSt11char_traitsIcESaIcEENSt7__cxx1112basic_stringIT_T0_T1_EEOS8_RKS8_
FNDA:99,_ZStplIcSt11char_traitsIcESaIcEENSt7__cxx1112basic_stringIT_T0_T1_EEOS8_RKS8_
FN:6206,_ZStplIcSt11char_traitsIcESaIcEENSt7__cxx1112basic_stringIT_T0_T1_EEOS8_PKS5_
FNDA:91,_ZStplIcSt11char_traitsIcESaIcEENSt7__cxx1112basic_stringIT_T0_T1_EEOS8_PKS5_
FN:6248,_ZSteqIcSt11char_traitsIcESaIcEEbRKNSt7__cxx1112basic_stringIT_T0_T1_EEPKS5_
FNDA:542,_ZSteqIcSt11char_traitsIcESaIcEEbRKNSt7__cxx1112basic_stringIT_T0_T1_EEPKS5_
FN:6493,_ZSt4swapIcSt11char_traitsIcESaIcEEvRNSt7__cxx1112basic_stringIT_T0_T1_EES9_
FNDA:16,_ZSt4swapIcSt11char_traitsIcESaIcEEvRNSt7__cxx1112basic_stringIT_T0_T1_EES9_
FN:6619,_ZNSt7__cxx114stoiERKNS_12basic_stringIcSt11char_traitsIcESaIcEEEPmi
FNDA:42,_ZNSt7__cxx114stoiERKNS_12basic_stringIcSt11char_traitsIcESaIcEEEPmi
DA:251,0
DA:255,0
DA:256,0
DA:271,0
DA:274,0
DA:275,0
DA:6132,63
DA:6135,63
DA:6136,63
DA:6137,63
DA:6138,0
DA:6160,99
DA:6162,99
DA:6206,91
DA:6208,91
DA:6248,542
DA:6250,542
DA:6493,16
DA:6496,16
DA:6619,42
DA:6620,42
DA:6621,42
end_of_record
SF:/usr/include/c++/11/utility
FN:183,_ZNSt10__pair_getILm0EE10__move_getINSt7__cxx1112basic_stringIcSt11char_traitsIcESaIcEEES7_EEOT_OSt4pairIS8_T0_E
FNDA:72,_ZNSt10__pair_getILm0EE10__move_getINSt7__cxx1112basic_stringIcSt11char_traitsIcESaIcEEES7_EEOT_OSt4pairIS8_T0_E
FN:207,_ZNSt10__pair_getILm1EE10__move_getINSt7__cxx1112basic_stringIcSt11char_traitsIcESaIcEEES7_EEOT0_OSt4pairIT_S8_E
FNDA:72,_ZNSt10__pair_getILm1EE10__move_getINSt7__cxx1112basic_stringIcSt11char_traitsIcESaIcEEES7_EEOT0_OSt4pairIT_S8_E
FN:228,_ZSt3getILm1ENSt7__cxx1112basic_stringIcSt11char_traitsIcESaIcEEES5_EONSt13tuple_elementIXT_ESt4pairIT0_T1_EE4typeEOSA_
FNDA:72,_ZSt3getILm1ENSt7__cxx1112basic_stringIcSt11char_traitsIcESaIcEEES5_EONSt13tuple_elementIXT_ESt4pairIT0_T1_EE4typeEOSA_
FN:228,_ZSt3getILm0ENSt7__cxx1112basic_stringIcSt11char_traitsIcESaIcEEES5_EONSt13tuple_elementIXT_ESt4pairIT0_T1_EE4typeEOSA_
FNDA:72,_ZSt3getILm0ENSt7__cxx1112basic_stringIcSt11char_traitsIcESaIcEEES5_EONSt13tuple_elementIXT_ESt4pairIT0_T1_EE4typeEOSA_
DA:183,72
DA:184,72
DA:207,72
DA:208,72
DA:228,72
DA:229,72
DA:228,72
DA:229,72
end_of_record
SF:/usr/include/c++/11/bits/stl_algobase.h
FN:152,_ZSt9iter_swapIN9__gnu_cxx17__normal_iteratorIPNSt7__cxx1112basic_stringIcSt11char_traitsIcESaIcEEESt6vectorIS7_SaIS7_EEEESC_EvT_T0_
FNDA:16,_ZSt9iter_swapIN9__gnu_cxx17__normal_iteratorIPNSt7__cxx1112basic_stringIcSt11char_traitsIcESaIcEEESt6vectorIS7_SaIS7_EEEESC_EvT_T0_
FN:230,_ZSt3minImERKT_S2_S2_
FNDA:185,_ZSt3minImERKT_S2_S2_
FN:254,_ZSt3maxImERKT_S2_S2_
FNDA:101,_ZSt3maxImERKT_S2_S2_
FN:313,_ZSt12__niter_baseIPPiET_S2_
FNDA:0,_ZSt12__niter_baseIPPiET_S2_
FN:313,_ZSt12__niter_baseIPPSt4pairINSt7__cxx1112basic_stringIcSt11char_traitsIcESaIcEEES6_EET_SA_
FNDA:0,_ZSt12__niter_baseIPPSt4pairINSt7__cxx1112basic_stringIcSt11char_traitsIcESaIcEEES6_EET_SA_
FN:335,_ZSt12__niter_wrapIPPiET_RKS2_S2_
FNDA:0,_ZSt12__niter_wrapIPPiET_RKS2_S2_
FN:335,_ZSt12__niter_wrapIPPSt4pairINSt7__cxx1112basic_stringIcSt11char_traitsIcESaIcEEES6_EET_RKSA_SA_
FNDA:0,_ZSt12__niter_wrapIPPSt4pairINSt7__cxx1112basic_stringIcSt11char_traitsIcESaIcEEES6_EET_RKSA_SA_
FN:420,_ZNSt11__copy_moveILb0ELb1ESt26random_access_iterator_tagE8__copy_mIPSt4pairINSt7__cxx1112basic_stringIcSt11char_traitsIcESaIcEEES9_EEEPT_PKSC_SF_SD_
FNDA:0,_ZNSt11__copy_moveILb0ELb1ESt26random_access_iterator_tagE8__copy_mIPSt4pairINSt7__cxx1112basic_stringIcSt11char_traitsIcESaIcEEES9_EEEPT_PKSC_SF_SD_
FN:420,_ZNSt11__copy_moveILb0ELb1ESt26random_access_iterator_tagE8__copy_mIPiEEPT_PKS4_S7_S5_
FNDA:0,_ZNSt11__copy_moveILb0ELb1ESt26random_access_iterator_tagE8__copy_mIPiEEPT_PKS4_S7_S5_
FN:486,_ZSt14__copy_move_a2ILb0EPPSt4pairINSt7__cxx1112basic_stringIcSt11char_traitsIcESaIcEEES6_ES9_ET1_T0_SB_SA_
FNDA:0,_ZSt14__copy_move_a2ILb0EPPSt4pairINSt7__cxx1112basic_stringIcSt11char_traitsIcESaIcEEES6_ES9_ET1_T0_SB_SA_
FN:486,_ZSt14__copy_move_a2ILb0EPPiS1_ET1_T0_S3_S2_
FNDA:0,_ZSt14__copy_move_a2ILb0EPPiS1_ET1_T0_S3_S2_
FN:521,_ZSt14__copy_move_a1ILb0EPPiS1_ET1_T0_S3_S2_
FNDA:0,_ZSt14__copy_move_a1ILb0EPPiS1_ET1_T0_S3_S2_
FN:521,_ZSt14__copy_move_a1ILb0EPPSt4pairINSt7__cxx1112basic_stringIcSt11char_traitsIcESaIcEEES6_ES9_ET1_T0_SB_SA_
FNDA:0,_ZSt14__copy_move_a1ILb0EPPSt4pairINSt7__cxx1112basic_stringIcSt11char_traitsIcESaIcEEES6_ES9_ET1_T0_SB_SA_
FN:527,_ZSt13__copy_move_aILb0EPPSt4pairINSt7__cxx1112basic_stringIcSt11char_traitsIcESaIcEEES6_ES9_ET1_T0_SB_SA_
FNDA:0,_ZSt13__copy_move_aILb0EPPSt4pairINSt7__cxx1112basic_stringIcSt11char_traitsIcESaIcEEES6_ES9_ET1_T0_SB_SA_
FN:527,_ZSt13__copy_move_aILb0EPPiS1_ET1_T0_S3_S2_
FNDA:0,_ZSt13__copy_move_aILb0EPPiS1_ET1_T0_S3_S2_
FN:611,_ZSt4copyIPPiS1_ET0_T_S3_S2_
FNDA:0,_ZSt4copyIPPiS1_ET0_T_S3_S2_
FN:611,_ZSt4copyIPPSt4pairINSt7__cxx1112basic_stringIcSt11char_traitsIcESaIcEEES6_ES9_ET0_T_SB_SA_
FNDA:0,_ZSt4copyIPPSt4pairINSt7__cxx1112basic_stringIcSt11char_traitsIcESaIcEEES6_ES9_ET0_T_SB_SA_
FN:731,_ZNSt20__copy_move_backwardILb0ELb1ESt26random_access_iterator_tagE13__copy_move_bIPiEEPT_PKS4_S7_S5_
FNDA:0,_ZNSt20__copy_move_backwardILb0ELb1ESt26random_access_iterator_tagE13__copy_move_bIPiEEPT_PKS4_S7_S5_
FN:731,_ZNSt20__copy_move_backwardILb0ELb1ESt26random_access_iterator_tagE13__copy_move_bIPSt4pairINSt7__cxx1112basic_stringIcSt11char_traitsIcESaIcEEES9_EEEPT_PKSC_SF_SD_
FNDA:0,_ZNSt20__copy_move_backwardILb0ELb1ESt26random_access_iterator_tagE13__copy_move_bIPSt4pairINSt7__cxx1112basic_stringIcSt11char_traitsIcESaIcEEES9_EEEPT_PKSC_SF_SD_
FN:750,_ZSt23__copy_move_backward_a2ILb0EPPiS1_ET1_T0_S3_S2_
FNDA:0,_ZSt23__copy_move_backward_a2ILb0EPPiS1_ET1_T0_S3_S2_
FN:750,_ZSt23__copy_move_backward_a2ILb0EPPSt4pairINSt7__cxx1112basic_stringIcSt11char_traitsIcESaIcEEES6_ES9_ET1_T0_SB_SA_
FNDA:0,_ZSt23__copy_move_backward_a2ILb0EPPSt4pairINSt7__cxx1112basic_stringIcSt11char_traitsIcESaIcEEES6_ES9_ET1_T0_SB_SA_
FN:768,_ZSt23__copy_move_backward_a1ILb0EPPiS1_ET1_T0_S3_S2_
FNDA:0,_ZSt23__copy_move_backward_a1ILb0EPPiS1_ET1_T0_S3_S2_
FN:768,_ZSt23__copy_move_backward_a1ILb0EPPSt4pairINSt7__cxx1112basic_stringIcSt11char_traitsIcESaIcEEES6_ES9_ET1_T0_SB_SA_
FNDA:0,_ZSt23__copy_move_backward_a1ILb0EPPSt4pairINSt7__cxx1112basic_stringIcSt11char_traitsIcESaIcEEES6_ES9_ET1_T0_SB_SA_
FN:796,_ZSt22__copy_move_backward_aILb0EPPiS1_ET1_T0_S3_S2_
FNDA:0,_ZSt22__copy_move_backward_aILb0EPPiS1_ET1_T0_S3_S2_
FN:796,_ZSt22__copy_move_backward_aILb0EPPSt4pairINSt7__cxx1112basic_stringIcSt11char_traitsIcESaIcEEES6_ES9_ET1_T0_SB_SA_
FNDA:0,_ZSt22__copy_move_backward_aILb0EPPSt4pairINSt7__cxx1112basic_stringIcSt11char_traitsIcESaIcEEES6_ES9_ET1_T0_SB_SA_
FN:848,_ZSt13copy_backwardIPPSt4pairINSt7__cxx1112basic_stringIcSt11char_traitsIcESaIcEEES6_ES9_ET0_T_SB_SA_
FNDA:0,_ZSt13copy_backwardIPPSt4pairINSt7__cxx1112basic_stringIcSt11char_traitsIcESaIcEEES6_ES9_ET0_T_SB_SA_
FN:848,_ZSt13copy_backwardIPPiS1_ET0_T_S3_S2_
FNDA:0,_ZSt13copy_backwardIPPiS1_ET0_T_S3_S2_
DA:152,16
DA:182,16
DA:184,16
DA:230,185
DA:235,185
DA:236,0
DA:237,185
DA:254,101
DA:259,101
DA:260,32
DA:261,69
DA:313,0
DA:315,0
DA:313,0
DA:315,0
DA:335,0
DA:336,0
DA:335,0
DA:336,0
DA:420,0
DA:429,0
DA:430,0
DA:431,0
DA:432,0
DA:420,0
DA:429,0
DA:430,0
DA:431,0
DA:432,0
DA:486,0
DA:495,0
DA:486,0
DA:495,0
DA:521,0
DA:522,0
DA:521,0
DA:522,0
DA:527,0
DA:529,0
DA:532,0
DA:527,0
DA:529,0
DA:532,0
DA:611,0
DA:620,0
DA:611,0
DA:620,0
DA:731,0
DA:740,0
DA:741,0
DA:742,0
DA:743,0
DA:731,0
DA:740,0
DA:741,0
DA:742,0
DA:743,0
DA:750,0
DA:760,0
DA:762,0
DA:750,0
DA:760,0
DA:762,0
DA:768,0
DA:769,0
DA:768,0
DA:769,0
DA:796,0
DA:798,0
DA:801,0
DA:796,0
DA:798,0
DA:801,0
DA:848,0
DA:859,0
DA:848,0
DA:859,0
end_of_record
SF:/usr/include/c++/11/bits/stl_pair.h
FN:314,_ZNSt4pairINSt7__cxx1112basic_stringIcSt11char_traitsIcESaIcEEES5_EC2ERKS6_
FNDA:72,_ZNSt4pairINSt7__cxx1112basic_stringIcSt11char_traitsIcESaIcEEES5_EC2ERKS6_
FN:315,_ZNSt4pairINSt7__cxx1112basic_stringIcSt11char_traitsIcESaIcEEES5_EC2EOS6_
FNDA:87,_ZNSt4pairINSt7__cxx1112basic_stringIcSt11char_traitsIcESaIcEEES5_EC2EOS6_
FN:352,_ZNSt4pairINSt7__cxx1112basic_stringIcSt11char_traitsIcESaIcEEES5_EC2IRS5_RA1_KcLb1EEEOT_OT0_
FNDA:51,_ZNSt4pairINSt7__cxx1112basic_stringIcSt11char_traitsIcESaIcEEES5_EC2IRS5_RA1_KcLb1EEEOT_OT0_
FN:352,_ZNSt4pairINSt7__cxx1112basic_stringIcSt11char_traitsIcESaIcEEES5_EC2IS5_RS5_Lb1EEEOT_OT0_
FNDA:36,_ZNSt4pairINSt7__cxx1112basic_stringIcSt11char_traitsIcESaIcEEES5_EC2IS5_RS5_Lb1EEEOT_OT0_
DA:314,72
DA:315,87
DA:352,51
DA:353,51
DA:352,36
DA:353,36
end_of_record
SF:/usr/include/c++/11/bits/move.h
FN:49,_ZSt11__addressofISt4pairINSt7__cxx1112basic_stringIcSt11char_traitsIcESaIcEEES6_EEPT_RS8_
FNDA:15,_ZSt11__addressofISt4pairINSt7__cxx1112basic_stringIcSt11char_traitsIcESaIcEEES6_EEPT_RS8_
FN:77,_ZSt7forwardISt4pairINSt7__cxx1112basic_stringIcSt11char_traitsIcESaIcEEES6_EEOT_RNSt16remove_referenceIS8_E4typeE
FNDA:261,_ZSt7forwardISt4pairINSt7__cxx1112basic_stringIcSt11char_traitsIcESaIcEEES6_EEOT_RNSt16remove_referenceIS8_E4typeE
FN:77,_ZSt7forwardIiEOT_RNSt16remove_referenceIS0_E4typeE
FNDA:298,_ZSt7forwardIiEOT_RNSt16remove_referenceIS0_E4typeE
FN:77,_ZSt7forwardIRKiEOT_RNSt16remove_referenceIS2_E4typeE
FNDA:28,_ZSt7forwardIRKiEOT_RNSt16remove_referenceIS2_E4typeE
FN:77,_ZSt7forwardIRA1_KcEOT_RNSt16remove_referenceIS3_E4typeE
FNDA:51,_ZSt7forwardIRA1_KcEOT_RNSt16remove_referenceIS3_E4typeE
FN:77,_ZSt7forwardIRNSt7__cxx1112basic_stringIcSt11char_traitsIcESaIcEEEEOT_RNSt16remove_referenceIS7_E4typeE
FNDA:87,_ZSt7forwardIRNSt7__cxx1112basic_stringIcSt11char_traitsIcESaIcEEEEOT_RNSt16remove_referenceIS7_E4typeE
FN:77,_ZSt7forwardINSt7__cxx1112basic_stringIcSt11char_traitsIcESaIcEEEEOT_RNSt16remove_referenceIS6_E4typeE
FNDA:320,_ZSt7forwardINSt7__cxx1112basic_stringIcSt11char_traitsIcESaIcEEEEOT_RNSt16remove_referenceIS6_E4typeE
FN:104,_ZSt4moveIRiEONSt16remove_referenceIT_E4typeEOS2_
FNDA:149,_ZSt4moveIRiEONSt16remove_referenceIT_E4typeEOS2_
FN:104,_ZSt4moveIRNSt7__cxx1112basic_stringIcSt11char_traitsIcESaIcEEEEONSt16remove_referenceIT_E4typeEOS8_
FNDA:292,_ZSt4moveIRNSt7__cxx1112basic_stringIcSt11char_traitsIcESaIcEEEEONSt16remove_referenceIT_E4typeEOS8_
FN:104,_ZSt4moveIRSaIcEEONSt16remove_referenceIT_E4typeEOS3_
FNDA:0,_ZSt4moveIRSaIcEEONSt16remove_referenceIT_E4typeEOS3_
FN:104,_ZSt4moveIRSt4pairINSt7__cxx1112basic_stringIcSt11char_traitsIcESaIcEEES6_EEONSt16remove_referenceIT_E4typeEOSA_
FNDA:318,_ZSt4moveIRSt4pairINSt7__cxx1112basic_stringIcSt11char_traitsIcESaIcEEES6_EEONSt16remove_referenceIT_E4typeEOSA_
DA:49,15
DA:50,15
DA:77,261
DA:78,261
DA:77,298
DA:78,298
DA:77,28
DA:78,28
DA:77,51
DA:78,51
DA:77,87
DA:78,87
DA:77,320
DA:78,320
DA:104,149
DA:105,149
DA:104,292
DA:105,292
DA:104,0
DA:105,0
DA:104,318
DA:105,318
end_of_record
SF:/usr/include/c++/11/iostream
end_of_record
SF:/mnt/c/Users/Jeamh/CLionProjects/Examen1/Examen2/ejercicio-2/src/expresionesAritmeticas.cpp
FN:5,_Z10precedenceNSt7__cxx1112basic_stringIcSt11char_traitsIcESaIcEEE
FNDA:54,_Z10precedenceNSt7__cxx1112basic_stringIcSt11char_traitsIcESaIcEEE
FN:12,_Z10esOperadorNSt7__cxx1112basic_stringIcSt11char_traitsIcESaIcEEE
FNDA:87,_Z10esOperadorNSt7__cxx1112basic_stringIcSt11char_traitsIcESaIcEEE
FN:17,_Z23esOperadorNoConmutativoNSt7__cxx1112basic_stringIcSt11char_traitsIcESaIcEEE
FNDA:4,_Z23esOperadorNoConmutativoNSt7__cxx1112basic_stringIcSt11char_traitsIcESaIcEEE
FN:22,_Z7applyOpiic
FNDA:30,_Z7applyOpiic
FN:37,_Z8esEnteroRKNSt7__cxx1112basic_stringIcSt11char_traitsIcESaIcEEE
FNDA:38,_Z8esEnteroRKNSt7__cxx1112basic_stringIcSt11char_traitsIcESaIcEEE
FN:44,_Z11evalPrefijoSt6vectorINSt7__cxx1112basic_stringIcSt11char_traitsIcESaIcEEESaIS5_EE
FNDA:6,_Z11evalPrefijoSt6vectorINSt7__cxx1112basic_stringIcSt11char_traitsIcESaIcEEESaIS5_EE
FN:72,_Z12evalPostfijoSt6vectorINSt7__cxx1112basic_stringIcSt11char_traitsIcESaIcEEESaIS5_EE
FNDA:6,_Z12evalPostfijoSt6vectorINSt7__cxx1112basic_stringIcSt11char_traitsIcESaIcEEESaIS5_EE
FN:98,_Z20parentesisNecesariosNSt7__cxx1112basic_stringIcSt11char_traitsIcESaIcEEES4_i
FNDA:21,_Z20parentesisNecesariosNSt7__cxx1112basic_stringIcSt11char_traitsIcESaIcEEES4_i
FN:113,_Z16mostrarInfijoPreRKSt6vectorINSt7__cxx1112basic_stringIcSt11char_traitsIcESaIcEEESaIS5_EE
FNDA:7,_Z16mostrarInfijoPreRKSt6vectorINSt7__cxx1112basic_stringIcSt11char_traitsIcESaIcEEESaIS5_EE
FN:146,_Z17mostrarInfijoPostRKSt6vectorINSt7__cxx1112basic_stringIcSt11char_traitsIcESaIcEEESaIS5_EE
FNDA:8,_Z17mostrarInfijoPostRKSt6vectorINSt7__cxx1112basic_stringIcSt11char_traitsIcESaIcEEESaIS5_EE
FN:182,_Z16mostrarExpresionRKNSt7__cxx1112basic_stringIcSt11char_traitsIcESaIcEEERSt6vectorIS4_SaIS4_EE
FNDA:15,_Z16mostrarExpresionRKNSt7__cxx1112basic_stringIcSt11char_traitsIcESaIcEEERSt6vectorIS4_SaIS4_EE
DA:5,54
DA:6,54
DA:7,17
DA:8,0
DA:12,87
DA:13,87
DA:17,4
DA:18,4
DA:22,30
DA:23,30
DA:24,14
DA:25,14
DA:26,6
DA:27,6
DA:28,8
DA:29,8
DA:30,2
DA:31,2
DA:33,0
DA:37,38
DA:38,38
DA:40,76
DA:41,38
DA:44,6
DA:47,6
DA:50,40
DA:52,88
DA:53,88
DA:55,14
DA:56,14
DA:57,14
DA:58,14
DA:60,14
DA:62,14
DA:66,20
DA:69,12
DA:70,6
DA:72,6
DA:74,6
DA:77,44
DA:79,38
DA:80,22
DA:84,16
DA:85,16
DA:86,16
DA:87,16
DA:89,16
DA:91,38
DA:93,12
DA:95,6
DA:98,21
DA:100,21
DA:101,10
DA:104,11
DA:105,28
DA:106,17
DA:109,0
DA:113,7
DA:115,7
DA:118,46
DA:120,39
DA:122,16
DA:123,16
DA:124,16
DA:125,16
DA:128,16
DA:129,4
DA:131,16
DA:132,1
DA:135,16
DA:136,16
DA:138,23
DA:140,39
DA:142,14
DA:143,7
DA:146,8
DA:148,8
DA:151,56
DA:153,48
DA:156,20
DA:157,20
DA:158,20
DA:159,20
DA:162,20
DA:163,2
DA:165,20
DA:166,4
DA:170,20
DA:171,20
DA:173,28
DA:175,48
DA:178,16
DA:179,8
DA:182,15
DA:184,15
DA:186,7
DA:188,7
DA:189,8
DA:191,8
DA:194,0
end_of_record
SF:/usr/include/c++/11/bits/alloc_traits.h
FN:463,_ZNSt16allocator_traitsISaISt4pairINSt7__cxx1112basic_stringIcSt11char_traitsIcESaIcEEES6_EEE8allocateERS8_m
FNDA:15,_ZNSt16allocator_traitsISaISt4pairINSt7__cxx1112basic_stringIcSt11char_traitsIcESaIcEEES6_EEE8allocateERS8_m
FN:463,_ZNSt16allocator_traitsISaIPSt4pairINSt7__cxx1112basic_stringIcSt11char_traitsIcESaIcEEES6_EEE8allocateERS9_m
FNDA:15,_ZNSt16allocator_traitsISaIPSt4pairINSt7__cxx1112basic_stringIcSt11char_traitsIcESaIcEEES6_EEE8allocateERS9_m
FN:463,_ZNSt16allocator_traitsISaIiEE8allocateERS0_m
FNDA:37,_ZNSt16allocator_traitsISaIiEE8allocateERS0_m
FN:463,_ZNSt16allocator_traitsISaIPiEE8allocateERS1_m
FNDA:12,_ZNSt16allocator_traitsISaIPiEE8allocateERS1_m
FN:495,_ZNSt16allocator_traitsISaISt4pairINSt7__cxx1112basic_stringIcSt11char_traitsIcESaIcEEES6_EEE10deallocateERS8_PS7_m
FNDA:15,_ZNSt16allocator_traitsISaISt4pairINSt7__cxx1112basic_stringIcSt11char_traitsIcESaIcEEES6_EEE10deallocateERS8_PS7_m
FN:495,_ZNSt16allocator_traitsISaIiEE10deallocateERS0_Pim
FNDA:37,_ZNSt16allocator_traitsISaIiEE10deallocateERS0_Pim
FN:495,_ZNSt16allocator_traitsISaIPiEE10deallocateERS1_PS0_m
FNDA:12,_ZNSt16allocator_traitsISaIPiEE10deallocateERS1_PS0_m
FN:495,_ZNSt16allocator_traitsISaIPSt4pairINSt7__cxx1112basic_stringIcSt11char_traitsIcESaIcEEES6_EEE10deallocateERS9_PS8_m
FNDA:15,_ZNSt16allocator_traitsISaIPSt4pairINSt7__cxx1112basic_stringIcSt11char_traitsIcESaIcEEES6_EEE10deallocateERS9_PS8_m
FN:511,_ZNSt16allocator_traitsISaISt4pairINSt7__cxx1112basic_stringIcSt11char_traitsIcESaIcEEES6_EEE9constructIS7_JS7_EEEvRS8_PT_DpOT0_
FNDA:87,_ZNSt16allocator_traitsISaISt4pairINSt7__cxx1112basic_stringIcSt11char_traitsIcESaIcEEES6_EEE9constructIS7_JS7_EEEvRS8_PT_DpOT0_
FN:511,_ZNSt16allocator_traitsISaIiEE9constructIiJRKiEEEvRS0_PT_DpOT0_
FNDA:14,_ZNSt16allocator_traitsISaIiEE9constructIiJRKiEEEvRS0_PT_DpOT0_
FN:511,_ZNSt16allocator_traitsISaIiEE9constructIiJiEEEvRS0_PT_DpOT0_
FNDA:91,_ZNSt16allocator_traitsISaIiEE9constructIiJiEEEvRS0_PT_DpOT0_
FN:531,_ZNSt16allocator_traitsISaISt4pairINSt7__cxx1112basic_stringIcSt11char_traitsIcESaIcEEES6_EEE7destroyIS7_EEvRS8_PT_
FNDA:72,_ZNSt16allocator_traitsISaISt4pairINSt7__cxx1112basic_stringIcSt11char_traitsIcESaIcEEES6_EEE7destroyIS7_EEvRS8_PT_
FN:531,_ZNSt16allocator_traitsISaIiEE7destroyIiEEvRS0_PT_
FNDA:60,_ZNSt16allocator_traitsISaIiEE7destroyIiEEvRS0_PT_
FN:547,_ZNSt16allocator_traitsISaISt4pairINSt7__cxx1112basic_stringIcSt11char_traitsIcESaIcEEES6_EEE8max_sizeERKS8_
FNDA:0,_ZNSt16allocator_traitsISaISt4pairINSt7__cxx1112basic_stringIcSt11char_traitsIcESaIcEEES6_EEE8max_sizeERKS8_
FN:547,_ZNSt16allocator_traitsISaIiEE8max_sizeERKS0_
FNDA:50,_ZNSt16allocator_traitsISaIiEE8max_sizeERKS0_
FN:562,_ZNSt16allocator_traitsISaIcEE37select_on_container_copy_constructionERKS0_
FNDA:11,_ZNSt16allocator_traitsISaIcEE37select_on_container_copy_constructionERKS0_
FN:845,_ZSt8_DestroyIPSt4pairINSt7__cxx1112basic_stringIcSt11char_traitsIcESaIcEEES6_ES7_EvT_S9_RSaIT0_E
FNDA:15,_ZSt8_DestroyIPSt4pairINSt7__cxx1112basic_stringIcSt11char_traitsIcESaIcEEES6_ES7_EvT_S9_RSaIT0_E
DA:463,15
DA:464,15
DA:463,15
DA:464,15
DA:463,37
DA:464,37
DA:463,12
DA:464,12
DA:495,15
DA:496,15
DA:495,37
DA:496,37
DA:495,15
DA:496,15
DA:495,12
DA:496,12
DA:511,87
DA:516,87
DA:520,87
DA:511,91
DA:516,91
DA:520,91
DA:511,14
DA:516,14
DA:520,14
DA:531,72
DA:535,72
DA:539,72
DA:531,60
DA:535,60
DA:539,60
DA:547,0
DA:550,0
DA:547,50
DA:550,50
DA:562,11
DA:563,11
DA:845,15
DA:848,15
DA:849,15
end_of_record
SF:/usr/include/c++/11/bits/cpp_type_traits.h
FN:560,_ZSt12__miter_baseIPPSt4pairINSt7__cxx1112basic_stringIcSt11char_traitsIcESaIcEEES6_EET_SA_
FNDA:0,_ZSt12__miter_baseIPPSt4pairINSt7__cxx1112basic_stringIcSt11char_traitsIcESaIcEEES6_EET_SA_
FN:560,_ZSt12__miter_baseIPPiET_S2_
FNDA:0,_ZSt12__miter_baseIPPiET_S2_
DA:560,0
DA:561,0
DA:560,0
DA:561,0
end_of_record
SF:/usr/include/c++/11/bits/deque.tcc
FN:164,_ZNSt5dequeISt4pairINSt7__cxx1112basic_stringIcSt11char_traitsIcESaIcEEES6_ESaIS7_EE12emplace_backIJS7_EEEvDpOT_
FNDA:87,_ZNSt5dequeISt4pairINSt7__cxx1112basic_stringIcSt11char_traitsIcESaIcEEES6_ESaIS7_EE12emplace_backIJS7_EEEvDpOT_
FN:164,_ZNSt5dequeIiSaIiEE12emplace_backIJiEEEvDpOT_
FNDA:58,_ZNSt5dequeIiSaIiEE12emplace_backIJiEEEvDpOT_
FN:484,_ZNSt5dequeISt4pairINSt7__cxx1112basic_stringIcSt11char_traitsIcESaIcEEES6_ESaIS7_EE16_M_push_back_auxIJS7_EEEvDpOT_
FNDA:0,_ZNSt5dequeISt4pairINSt7__cxx1112basic_stringIcSt11char_traitsIcESaIcEEES6_ESaIS7_EE16_M_push_back_auxIJS7_EEEvDpOT_
FN:484,_ZNSt5dequeIiSaIiEE16_M_push_back_auxIJiEEEvDpOT_
FNDA:0,_ZNSt5dequeIiSaIiEE16_M_push_back_auxIJiEEEvDpOT_
FN:484,_ZNSt5dequeIiSaIiEE16_M_push_back_auxIJRKiEEEvDpOT_
FNDA:0,_ZNSt5dequeIiSaIiEE16_M_push_back_auxIJRKiEEEvDpOT_
FN:560,_ZNSt5dequeISt4pairINSt7__cxx1112basic_stringIcSt11char_traitsIcESaIcEEES6_ESaIS7_EE15_M_pop_back_auxEv
FNDA:0,_ZNSt5dequeISt4pairINSt7__cxx1112basic_stringIcSt11char_traitsIcESaIcEEES6_ESaIS7_EE15_M_pop_back_auxEv
FN:560,_ZNSt5dequeIiSaIiEE15_M_pop_back_auxEv
FNDA:0,_ZNSt5dequeIiSaIiEE15_M_pop_back_auxEv
FN:859,_ZNSt5dequeISt4pairINSt7__cxx1112basic_stringIcSt11char_traitsIcESaIcEEES6_ESaIS7_EE19_M_destroy_data_auxESt15_Deque_iteratorIS7_RS7_PS7_ESD_
FNDA:15,_ZNSt5dequeISt4pairINSt7__cxx1112basic_stringIcSt11char_traitsIcESaIcEEES6_ESaIS7_EE19_M_destroy_data_auxESt15_Deque_iteratorIS7_RS7_PS7_ESD_
FN:931,_ZNSt5dequeISt4pairINSt7__cxx1112basic_stringIcSt11char_traitsIcESaIcEEES6_ESaIS7_EE17_M_reallocate_mapEmb
FNDA:0,_ZNSt5dequeISt4pairINSt7__cxx1112basic_stringIcSt11char_traitsIcESaIcEEES6_ESaIS7_EE17_M_reallocate_mapEmb
FN:931,_ZNSt5dequeIiSaIiEE17_M_reallocate_mapEmb
FNDA:0,_ZNSt5dequeIiSaIiEE17_M_reallocate_mapEmb
DA:164,87
DA:167,87
DA:168,87
DA:170,87
DA:173,87
DA:176,0
DA:180,87
DA:164,58
DA:167,58
DA:168,58
DA:170,58
DA:173,58
DA:176,0
DA:180,58
DA:484,0
DA:492,0
DA:493,0
DA:496,0
DA:497,0
DA:501,0
DA:507,0
DA:509,0
DA:516,0
DA:484,0
DA:492,0
DA:493,0
DA:496,0
DA:497,0
DA:501,0
DA:507,0
DA:509,0
DA:516,0
DA:484,0
DA:492,0
DA:493,0
DA:496,0
DA:497,0
DA:501,0
DA:507,0
DA:509,0
DA:516,0
DA:560,0
DA:563,0
DA:564,0
DA:565,0
DA:566,0
DA:568,0
DA:560,0
DA:563,0
DA:564,0
DA:565,0
DA:566,0
DA:568,0
DA:859,15
DA:862,15
DA:863,15
DA:864,0
DA:865,0
DA:867,15
DA:869,0
DA:870,0
DA:871,0
DA:872,0
DA:875,15
DA:876,15
DA:877,15
DA:931,0
DA:934,0
DA:935,0
DA:936,0
DA:939,0
DA:941,0
DA:942,0
DA:943,0
DA:944,0
DA:945,0
DA:946,0
DA:949,0
DA:950,0
DA:951,0
DA:955,0
DA:956,0
DA:959,0
DA:960,0
DA:961,0
DA:962,0
DA:963,0
DA:965,0
DA:967,0
DA:968,0
DA:971,0
DA:972,0
DA:973,0
DA:931,0
DA:934,0
DA:935,0
DA:936,0
DA:939,0
DA:941,0
DA:942,0
DA:943,0
DA:944,0
DA:945,0
DA:946,0
DA:949,0
DA:950,0
DA:951,0
DA:955,0
DA:956,0
DA:959,0
DA:960,0
DA:961,0
DA:962,0
DA:963,0
DA:965,0
DA:967,0
DA:968,0
DA:971,0
DA:972,0
DA:973,0
end_of_record
SF:/usr/include/c++/11/bits/char_traits.h
FN:393,_ZNSt11char_traitsIcE6lengthEPKc
FNDA:11,_ZNSt11char_traitsIcE6lengthEPKc
FN:429,_ZNSt11char_traitsIcE4copyEPcPKcm
FNDA:0,_ZNSt11char_traitsIcE4copyEPcPKcm
DA:393,11
DA:399,11
DA:429,0
DA:431,0
DA:432,0
DA:437,0
end_of_record
SF:/usr/include/c++/11/bits/stl_iterator_base_types.h
FN:238,_ZSt19__iterator_categoryIPcENSt15iterator_traitsIT_E17iterator_categoryERKS2_
FNDA:0,_ZSt19__iterator_categoryIPcENSt15iterator_traitsIT_E17iterator_categoryERKS2_
FN:238,_ZSt19__iterator_categoryIPKcENSt15iterator_traitsIT_E17iterator_categoryERKS3_
FNDA:0,_ZSt19__iterator_categoryIPKcENSt15iterator_traitsIT_E17iterator_categoryERKS3_
FN:238,_ZSt19__iterator_categoryIN9__gnu_cxx17__normal_iteratorIPNSt7__cxx1112basic_stringIcSt11char_traitsIcESaIcEEESt6vectorIS7_SaIS7_EEEEENSt15iterator_traitsIT_E17iterator_categoryERKSE_
FNDA:27,_ZSt19__iterator_categoryIN9__gnu_cxx17__normal_iteratorIPNSt7__cxx1112basic_stringIcSt11char_traitsIcESaIcEEESt6vectorIS7_SaIS7_EEEEENSt15iterator_traitsIT_E17iterator_categoryERKSE_
DA:238,0
DA:239,0
DA:238,0
DA:239,0
DA:238,27
DA:239,27
end_of_record
SF:/usr/include/c++/11/bits/stl_algo.h
FN:1116,_ZSt9__reverseIN9__gnu_cxx17__normal_iteratorIPNSt7__cxx1112basic_stringIcSt11char_traitsIcESaIcEEESt6vectorIS7_SaIS7_EEEEEvT_SD_St26random_access_iterator_tag
FNDA:7,_ZSt9__reverseIN9__gnu_cxx17__normal_iteratorIPNSt7__cxx1112basic_stringIcSt11char_traitsIcESaIcEEESt6vectorIS7_SaIS7_EEEEEvT_SD_St26random_access_iterator_tag
FN:1145,_ZSt7reverseIN9__gnu_cxx17__normal_iteratorIPNSt7__cxx1112basic_stringIcSt11char_traitsIcESaIcEEESt6vectorIS7_SaIS7_EEEEEvT_SD_
FNDA:7,_ZSt7reverseIN9__gnu_cxx17__normal_iteratorIPNSt7__cxx1112basic_stringIcSt11char_traitsIcESaIcEEESt6vectorIS7_SaIS7_EEEEEvT_SD_
DA:1116,7
DA:1119,7
DA:1120,0
DA:1121,7
DA:1122,23
DA:1124,16
DA:1125,16
DA:1126,16
DA:1145,7
DA:1151,7
DA:1152,7
end_of_record
SF:/usr/include/c++/11/bits/stl_vector.h
FN:811,_ZNSt6vectorINSt7__cxx1112basic_stringIcSt11char_traitsIcESaIcEEESaIS5_EE5beginEv
FNDA:77,_ZNSt6vectorINSt7__cxx1112basic_stringIcSt11char_traitsIcESaIcEEESaIS5_EE5beginEv
FN:820,_ZNKSt6vectorINSt7__cxx1112basic_stringIcSt11char_traitsIcESaIcEEESaIS5_EE5beginEv
FNDA:149,_ZNKSt6vectorINSt7__cxx1112basic_stringIcSt11char_traitsIcESaIcEEESaIS5_EE5beginEv
FN:829,_ZNSt6vectorINSt7__cxx1112basic_stringIcSt11char_traitsIcESaIcEEESaIS5_EE3endEv
FNDA:55,_ZNSt6vectorINSt7__cxx1112basic_stringIcSt11char_traitsIcESaIcEEESaIS5_EE3endEv
FN:838,_ZNKSt6vectorINSt7__cxx1112basic_stringIcSt11char_traitsIcESaIcEEESaIS5_EE3endEv
FNDA:149,_ZNKSt6vectorINSt7__cxx1112basic_stringIcSt11char_traitsIcESaIcEEESaIS5_EE3endEv
FN:918,_ZNKSt6vectorINSt7__cxx1112basic_stringIcSt11char_traitsIcESaIcEEESaIS5_EE4sizeEv
FNDA:122,_ZNKSt6vectorINSt7__cxx1112basic_stringIcSt11char_traitsIcESaIcEEESaIS5_EE4sizeEv
FN:1043,_ZNSt6vectorINSt7__cxx1112basic_stringIcSt11char_traitsIcESaIcEEESaIS5_EEixEm
FNDA:144,_ZNSt6vectorINSt7__cxx1112basic_stringIcSt11char_traitsIcESaIcEEESaIS5_EEixEm
DA:811,77
DA:812,77
DA:820,149
DA:821,149
DA:829,55
DA:830,55
DA:838,149
DA:839,149
DA:918,122
DA:919,122
DA:1043,144
DA:1046,144
end_of_record
SF:/usr/include/c++/11/bits/allocator.h
FN:156,_ZNSaISt4pairINSt7__cxx1112basic_stringIcSt11char_traitsIcESaIcEEES5_EEC2Ev
FNDA:15,_ZNSaISt4pairINSt7__cxx1112basic_stringIcSt11char_traitsIcESaIcEEES5_EEC2Ev
FN:156,_ZNSaIiEC2Ev
FNDA:20,_ZNSaIiEC2Ev
FN:169,_ZNSaIPSt4pairINSt7__cxx1112basic_stringIcSt11char_traitsIcESaIcEEES5_EEC2IS6_EERKSaIT_E
FNDA:30,_ZNSaIPSt4pairINSt7__cxx1112basic_stringIcSt11char_traitsIcESaIcEEES5_EEC2IS6_EERKSaIT_E
FN:169,_ZNSaIPiEC2IiEERKSaIT_E
FNDA:24,_ZNSaIPiEC2IiEERKSaIT_E
FN:174,_ZNSaIPSt4pairINSt7__cxx1112basic_stringIcSt11char_traitsIcESaIcEEES5_EED2Ev
FNDA:30,_ZNSaIPSt4pairINSt7__cxx1112basic_stringIcSt11char_traitsIcESaIcEEES5_EED2Ev
FN:174,_ZNSaIPiED2Ev
FNDA:24,_ZNSaIPiED2Ev
FN:174,_ZNSaISt4pairINSt7__cxx1112basic_stringIcSt11char_traitsIcESaIcEEES5_EED2Ev
FNDA:15,_ZNSaISt4pairINSt7__cxx1112basic_stringIcSt11char_traitsIcESaIcEEES5_EED2Ev
FN:174,_ZNSaIiED2Ev
FNDA:20,_ZNSaIiED2Ev
DA:156,15
DA:156,20
DA:169,30
DA:169,24
DA:174,30
DA:174,24
DA:174,15
DA:174,20
end_of_record
SF:/usr/include/c++/11/bits/stl_iterator_base_funcs.h
FN:98,_ZSt10__distanceIPcENSt15iterator_traitsIT_E15difference_typeES2_S2_St26random_access_iterator_tag
FNDA:0,_ZSt10__distanceIPcENSt15iterator_traitsIT_E15difference_typeES2_S2_St26random_access_iterator_tag
FN:98,_ZSt10__distanceIPKcENSt15iterator_traitsIT_E15difference_typeES3_S3_St26random_access_iterator_tag
FNDA:0,_ZSt10__distanceIPKcENSt15iterator_traitsIT_E15difference_typeES3_S3_St26random_access_iterator_tag
FN:138,_ZSt8distanceIPcENSt15iterator_traitsIT_E15difference_typeES2_S2_
FNDA:0,_ZSt8distanceIPcENSt15iterator_traitsIT_E15difference_typeES2_S2_
FN:138,_ZSt8distanceIPKcENSt15iterator_traitsIT_E15difference_typeES3_S3_
FNDA:0,_ZSt8distanceIPKcENSt15iterator_traitsIT_E15difference_typeES3_S3_
DA:98,0
DA:104,0
DA:98,0
DA:104,0
DA:138,0
DA:141,0
DA:142,0
DA:138,0
DA:141,0
DA:142,0
end_of_record
TN:
SF:/mnt/c/Users/Jeamh/CLionProjects/Examen1/Examen2/ejercicio-2/ext/googletest/googletest/include/gtest/gtest-printers.h
FN:244,_ZN7testing8internal52internal_stream_operator_without_lexical_name_lookup13StreamPrinter10PrintValueIivEEDTcvvlsdefp0_fp_ERKT_PSo
FNDA:0,_ZN7testing8internal52internal_stream_operator_without_lexical_name_lookup13StreamPrinter10PrintValueIivEEDTcvvlsdefp0_fp_ERKT_PSo
FN:348,_ZN7testing8internal17PrintWithFallbackIiEEvRKT_PSo
FNDA:0,_ZN7testing8internal17PrintWithFallbackIiEEvRKT_PSo
FN:379,_ZN7testing8internal19FormatForComparisonINSt7__cxx1112basic_stringIcSt11char_traitsIcESaIcEEEA12_cE6FormatERKS7_
FNDA:0,_ZN7testing8internal19FormatForComparisonINSt7__cxx1112basic_stringIcSt11char_traitsIcESaIcEEEA12_cE6FormatERKS7_
FN:379,_ZN7testing8internal19FormatForComparisonIiiE6FormatB5cxx11ERKi
FNDA:0,_ZN7testing8internal19FormatForComparisonIiiE6FormatB5cxx11ERKi
FN:379,_ZN7testing8internal19FormatForComparisonINSt7__cxx1112basic_stringIcSt11char_traitsIcESaIcEEEA6_cE6FormatERKS7_
FNDA:0,_ZN7testing8internal19FormatForComparisonINSt7__cxx1112basic_stringIcSt11char_traitsIcESaIcEEEA6_cE6FormatERKS7_
FN:379,_ZN7testing8internal19FormatForComparisonINSt7__cxx1112basic_stringIcSt11char_traitsIcESaIcEEEA16_cE6FormatERKS7_
FNDA:0,_ZN7testing8internal19FormatForComparisonINSt7__cxx1112basic_stringIcSt11char_traitsIcESaIcEEEA16_cE6FormatERKS7_
FN:379,_ZN7testing8internal19FormatForComparisonINSt7__cxx1112basic_stringIcSt11char_traitsIcESaIcEEEA20_cE6FormatERKS7_
FNDA:0,_ZN7testing8internal19FormatForComparisonINSt7__cxx1112basic_stringIcSt11char_traitsIcESaIcEEEA20_cE6FormatERKS7_
FN:388,_ZN7testing8internal19FormatForComparisonIA20_cNSt7__cxx1112basic_stringIcSt11char_traitsIcESaIcEEEE6FormatEPKc
FNDA:0,_ZN7testing8internal19FormatForComparisonIA20_cNSt7__cxx1112basic_stringIcSt11char_traitsIcESaIcEEEE6FormatEPKc
FN:388,_ZN7testing8internal19FormatForComparisonIA16_cNSt7__cxx1112basic_stringIcSt11char_traitsIcESaIcEEEE6FormatEPKc
FNDA:0,_ZN7testing8internal19FormatForComparisonIA16_cNSt7__cxx1112basic_stringIcSt11char_traitsIcESaIcEEEE6FormatEPKc
FN:388,_ZN7testing8internal19FormatForComparisonIA6_cNSt7__cxx1112basic_stringIcSt11char_traitsIcESaIcEEEE6FormatEPKc
FNDA:0,_ZN7testing8internal19FormatForComparisonIA6_cNSt7__cxx1112basic_stringIcSt11char_traitsIcESaIcEEEE6FormatEPKc
FN:388,_ZN7testing8internal19FormatForComparisonIA12_cNSt7__cxx1112basic_stringIcSt11char_traitsIcESaIcEEEE6FormatEPKc
FNDA:0,_ZN7testing8internal19FormatForComparisonIA12_cNSt7__cxx1112basic_stringIcSt11char_traitsIcESaIcEEEE6FormatEPKc
FN:433,_ZN7testing8internal19FormatForComparisonIPKcNSt7__cxx1112basic_stringIcSt11char_traitsIcESaIcEEEE6FormatES3_
FNDA:0,_ZN7testing8internal19FormatForComparisonIPKcNSt7__cxx1112basic_stringIcSt11char_traitsIcESaIcEEEE6FormatES3_
FN:459,_ZN7testing8internal33FormatForComparisonFailureMessageIA16_cNSt7__cxx1112basic_stringIcSt11char_traitsIcESaIcEEEEES8_RKT_RKT0_
FNDA:0,_ZN7testing8internal33FormatForComparisonFailureMessageIA16_cNSt7__cxx1112basic_stringIcSt11char_traitsIcESaIcEEEEES8_RKT_RKT0_
FN:459,_ZN7testing8internal33FormatForComparisonFailureMessageIiiEENSt7__cxx1112basic_stringIcSt11char_traitsIcESaIcEEERKT_RKT0_
FNDA:0,_ZN7testing8internal33FormatForComparisonFailureMessageIiiEENSt7__cxx1112basic_stringIcSt11char_traitsIcESaIcEEERKT_RKT0_
FN:459,_ZN7testing8internal33FormatForComparisonFailureMessageINSt7__cxx1112basic_stringIcSt11char_traitsIcESaIcEEEA12_cEES7_RKT_RKT0_
FNDA:0,_ZN7testing8internal33FormatForComparisonFailureMessageINSt7__cxx1112basic_stringIcSt11char_traitsIcESaIcEEEA12_cEES7_RKT_RKT0_
FN:459,_ZN7testing8internal33FormatForComparisonFailureMessageIA12_cNSt7__cxx1112basic_stringIcSt11char_traitsIcESaIcEEEEES8_RKT_RKT0_
FNDA:0,_ZN7testing8internal33FormatForComparisonFailureMessageIA12_cNSt7__cxx1112basic_stringIcSt11char_traitsIcESaIcEEEEES8_RKT_RKT0_
FN:459,_ZN7testing8internal33FormatForComparisonFailureMessageINSt7__cxx1112basic_stringIcSt11char_traitsIcESaIcEEEA6_cEES7_RKT_RKT0_
FNDA:0,_ZN7testing8internal33FormatForComparisonFailureMessageINSt7__cxx1112basic_stringIcSt11char_traitsIcESaIcEEEA6_cEES7_RKT_RKT0_
FN:459,_ZN7testing8internal33FormatForComparisonFailureMessageIA6_cNSt7__cxx1112basic_stringIcSt11char_traitsIcESaIcEEEEES8_RKT_RKT0_
FNDA:0,_ZN7testing8internal33FormatForComparisonFailureMessageIA6_cNSt7__cxx1112basic_stringIcSt11char_traitsIcESaIcEEEEES8_RKT_RKT0_
FN:459,_ZN7testing8internal33FormatForComparisonFailureMessageINSt7__cxx1112basic_stringIcSt11char_traitsIcESaIcEEEA16_cEES7_RKT_RKT0_
FNDA:0,_ZN7testing8internal33FormatForComparisonFailureMessageINSt7__cxx1112basic_stringIcSt11char_traitsIcESaIcEEEA16_cEES7_RKT_RKT0_
FN:459,_ZN7testing8internal33FormatForComparisonFailureMessageINSt7__cxx1112basic_stringIcSt11char_traitsIcESaIcEEEA20_cEES7_RKT_RKT0_
FNDA:0,_ZN7testing8internal33FormatForComparisonFailureMessageINSt7__cxx1112basic_stringIcSt11char_traitsIcESaIcEEEA20_cEES7_RKT_RKT0_
FN:459,_ZN7testing8internal33FormatForComparisonFailureMessageIA20_cNSt7__cxx1112basic_stringIcSt11char_traitsIcESaIcEEEEES8_RKT_RKT0_
FNDA:0,_ZN7testing8internal33FormatForComparisonFailureMessageIA20_cNSt7__cxx1112basic_stringIcSt11char_traitsIcESaIcEEEEES8_RKT_RKT0_
FN:486,_ZN7testing8internal7PrintToIiEEvRKT_PSo
FNDA:0,_ZN7testing8internal7PrintToIiEEvRKT_PSo
FN:682,_ZN7testing8internal7PrintToERKNSt7__cxx1112basic_stringIcSt11char_traitsIcESaIcEEEPSo
FNDA:0,_ZN7testing8internal7PrintToERKNSt7__cxx1112basic_stringIcSt11char_traitsIcESaIcEEEPSo
FN:821,_ZN7testing8internal16UniversalPrinterIiE5PrintERKiPSo
FNDA:0,_ZN7testing8internal16UniversalPrinterIiE5PrintERKiPSo
FN:821,_ZN7testing8internal16UniversalPrinterINSt7__cxx1112basic_stringIcSt11char_traitsIcESaIcEEEE5PrintERKS7_PSo
FNDA:0,_ZN7testing8internal16UniversalPrinterINSt7__cxx1112basic_stringIcSt11char_traitsIcESaIcEEEE5PrintERKS7_PSo
FN:1011,_ZN7testing8internal21UniversalTersePrinterINSt7__cxx1112basic_stringIcSt11char_traitsIcESaIcEEEE5PrintERKS7_PSo
FNDA:0,_ZN7testing8internal21UniversalTersePrinterINSt7__cxx1112basic_stringIcSt11char_traitsIcESaIcEEEE5PrintERKS7_PSo
FN:1011,_ZN7testing8internal21UniversalTersePrinterIiE5PrintERKiPSo
FNDA:0,_ZN7testing8internal21UniversalTersePrinterIiE5PrintERKiPSo
FN:1039,_ZN7testing8internal21UniversalTersePrinterIPKcE5PrintES3_PSo
FNDA:0,_ZN7testing8internal21UniversalTersePrinterIPKcE5PrintES3_PSo
FN:1130,_ZN7testing8internal14UniversalPrintIiEEvRKT_PSo
FNDA:0,_ZN7testing8internal14UniversalPrintIiEEvRKT_PSo
FN:1130,_ZN7testing8internal14UniversalPrintINSt7__cxx1112basic_stringIcSt11char_traitsIcESaIcEEEEEvRKT_PSo
FNDA:0,_ZN7testing8internal14UniversalPrintINSt7__cxx1112basic_stringIcSt11char_traitsIcESaIcEEEEEvRKT_PSo
FN:1170,_ZN7testing13PrintToStringINSt7__cxx1112basic_stringIcSt11char_traitsIcESaIcEEEEES6_RKT_
FNDA:0,_ZN7testing13PrintToStringINSt7__cxx1112basic_stringIcSt11char_traitsIcESaIcEEEEES6_RKT_
FN:1170,_ZN7testing13PrintToStringIPKcEENSt7__cxx1112basic_stringIcSt11char_traitsIcESaIcEEERKT_
FNDA:0,_ZN7testing13PrintToStringIPKcEENSt7__cxx1112basic_stringIcSt11char_traitsIcESaIcEEERKT_
FN:1170,_ZN7testing13PrintToStringIiEENSt7__cxx1112basic_stringIcSt11char_traitsIcESaIcEEERKT_
FNDA:0,_ZN7testing13PrintToStringIiEENSt7__cxx1112basic_stringIcSt11char_traitsIcESaIcEEERKT_
DA:244,0
DA:248,0
DA:249,0
DA:348,0
DA:358,0
DA:359,0
DA:379,0
DA:380,0
DA:379,0
DA:380,0
DA:379,0
DA:380,0
DA:379,0
DA:380,0
DA:379,0
DA:380,0
DA:388,0
DA:389,0
DA:388,0
DA:389,0
DA:388,0
DA:389,0
DA:388,0
DA:389,0
DA:433,0
DA:459,0
DA:461,0
DA:459,0
DA:461,0
DA:459,0
DA:461,0
DA:459,0
DA:461,0
DA:459,0
DA:461,0
DA:459,0
DA:461,0
DA:459,0
DA:461,0
DA:459,0
DA:461,0
DA:459,0
DA:461,0
DA:486,0
DA:487,0
DA:488,0
DA:682,0
DA:683,0
DA:684,0
DA:821,0
DA:830,0
DA:831,0
DA:821,0
DA:830,0
DA:831,0
DA:1011,0
DA:1012,0
DA:1013,0
DA:1011,0
DA:1012,0
DA:1013,0
DA:1039,0
DA:1040,0
DA:1041,0
DA:1043,0
DA:1045,0
DA:1130,0
DA:1134,0
DA:1135,0
DA:1130,0
DA:1134,0
DA:1135,0
DA:1170,0
DA:1171,0
DA:1172,0
DA:1173,0
DA:1174,0
DA:1170,0
DA:1171,0
DA:1172,0
DA:1173,0
DA:1174,0
DA:1170,0
DA:1171,0
DA:1172,0
DA:1173,0
DA:1174,0
end_of_record
SF:/usr/include/c++/11/initializer_list
FN:71,_ZNKSt16initializer_listINSt7__cxx1112basic_stringIcSt11char_traitsIcESaIcEEEE4sizeEv
FNDA:14,_ZNKSt16initializer_listINSt7__cxx1112basic_stringIcSt11char_traitsIcESaIcEEEE4sizeEv
FN:75,_ZNKSt16initializer_listINSt7__cxx1112basic_stringIcSt11char_traitsIcESaIcEEEE5beginEv
FNDA:28,_ZNKSt16initializer_listINSt7__cxx1112basic_stringIcSt11char_traitsIcESaIcEEEE5beginEv
FN:79,_ZNKSt16initializer_listINSt7__cxx1112basic_stringIcSt11char_traitsIcESaIcEEEE3endEv
FNDA:14,_ZNKSt16initializer_listINSt7__cxx1112basic_stringIcSt11char_traitsIcESaIcEEEE3endEv
DA:71,14
DA:75,28
DA:79,14
end_of_record
SF:/usr/include/c++/11/bits/stl_iterator_base_funcs.h
FN:98,_ZSt10__distanceIPcENSt15iterator_traitsIT_E15difference_typeES2_S2_St26random_access_iterator_tag
FNDA:0,_ZSt10__distanceIPcENSt15iterator_traitsIT_E15difference_typeES2_S2_St26random_access_iterator_tag
FN:98,_ZSt10__distanceIPKNSt7__cxx1112basic_stringIcSt11char_traitsIcESaIcEEEENSt15iterator_traitsIT_E15difference_typeES9_S9_St26random_access_iterator_tag
FNDA:14,_ZSt10__distanceIPKNSt7__cxx1112basic_stringIcSt11char_traitsIcESaIcEEEENSt15iterator_traitsIT_E15difference_typeES9_S9_St26random_access_iterator_tag
FN:98,_ZSt10__distanceIPKcENSt15iterator_traitsIT_E15difference_typeES3_S3_St26random_access_iterator_tag
FNDA:0,_ZSt10__distanceIPKcENSt15iterator_traitsIT_E15difference_typeES3_S3_St26random_access_iterator_tag
FN:138,_ZSt8distanceIPcENSt15iterator_traitsIT_E15difference_typeES2_S2_
FNDA:0,_ZSt8distanceIPcENSt15iterator_traitsIT_E15difference_typeES2_S2_
FN:138,_ZSt8distanceIPKNSt7__cxx1112basic_stringIcSt11char_traitsIcESaIcEEEENSt15iterator_traitsIT_E15difference_typeES9_S9_
FNDA:14,_ZSt8distanceIPKNSt7__cxx1112basic_stringIcSt11char_traitsIcESaIcEEEENSt15iterator_traitsIT_E15difference_typeES9_S9_
FN:138,_ZSt8distanceIPKcENSt15iterator_traitsIT_E15difference_typeES3_S3_
FNDA:0,_ZSt8distanceIPKcENSt15iterator_traitsIT_E15difference_typeES3_S3_
DA:98,0
DA:104,0
DA:98,14
DA:104,14
DA:98,0
DA:104,0
DA:138,0
DA:141,0
DA:142,0
DA:138,14
DA:141,14
DA:142,28
DA:138,0
DA:141,0
DA:142,0
end_of_record
SF:/mnt/c/Users/Jeamh/CLionProjects/Examen1/Examen2/ejercicio-2/ext/googletest/googletest/include/gtest/gtest-message.h
end_of_record
SF:/mnt/c/Users/Jeamh/CLionProjects/Examen1/Examen2/ejercicio-2/ext/googletest/googletest/include/gtest/internal/gtest-port.h
FN:1060,_ZN7testing8internal8GTestLog9GetStreamEv
FNDA:0,_ZN7testing8internal8GTestLog9GetStreamEv
DA:1060,0
end_of_record
SF:/usr/include/c++/11/bits/stl_vector.h
FN:97,_ZNSt12_Vector_baseINSt7__cxx1112basic_stringIcSt11char_traitsIcESaIcEEESaIS5_EE17_Vector_impl_dataC2Ev
FNDA:51,_ZNSt12_Vector_baseINSt7__cxx1112basic_stringIcSt11char_traitsIcESaIcEEESaIS5_EE17_Vector_impl_dataC2Ev
FN:136,_ZNSt12_Vector_baseINSt7__cxx1112basic_stringIcSt11char_traitsIcESaIcEEESaIS5_EE12_Vector_implC2ERKS6_
FNDA:23,_ZNSt12_Vector_baseINSt7__cxx1112basic_stringIcSt11char_traitsIcESaIcEEESaIS5_EE12_Vector_implC2ERKS6_
FN:276,_ZNSt12_Vector_baseINSt7__cxx1112basic_stringIcSt11char_traitsIcESaIcEEESaIS5_EE19_M_get_Tp_allocatorEv
FNDA:120,_ZNSt12_Vector_baseINSt7__cxx1112basic_stringIcSt11char_traitsIcESaIcEEESaIS5_EE19_M_get_Tp_allocatorEv
FN:280,_ZNKSt12_Vector_baseINSt7__cxx1112basic_stringIcSt11char_traitsIcESaIcEEESaIS5_EE19_M_get_Tp_allocatorEv
FNDA:36,_ZNKSt12_Vector_baseINSt7__cxx1112basic_stringIcSt11char_traitsIcESaIcEEESaIS5_EE19_M_get_Tp_allocatorEv
FN:293,_ZNSt12_Vector_baseINSt7__cxx1112basic_stringIcSt11char_traitsIcESaIcEEESaIS5_EEC2ERKS6_
FNDA:15,_ZNSt12_Vector_baseINSt7__cxx1112basic_stringIcSt11char_traitsIcESaIcEEESaIS5_EEC2ERKS6_
FN:303,_ZNSt12_Vector_baseINSt7__cxx1112basic_stringIcSt11char_traitsIcESaIcEEESaIS5_EEC2EmRKS6_
FNDA:8,_ZNSt12_Vector_baseINSt7__cxx1112basic_stringIcSt11char_traitsIcESaIcEEESaIS5_EEC2EmRKS6_
FN:333,_ZNSt12_Vector_baseINSt7__cxx1112basic_stringIcSt11char_traitsIcESaIcEEESaIS5_EED2Ev
FNDA:43,_ZNSt12_Vector_baseINSt7__cxx1112basic_stringIcSt11char_traitsIcESaIcEEESaIS5_EED2Ev
FN:343,_ZNSt12_Vector_baseINSt7__cxx1112basic_stringIcSt11char_traitsIcESaIcEEESaIS5_EE11_M_allocateEm
FNDA:38,_ZNSt12_Vector_baseINSt7__cxx1112basic_stringIcSt11char_traitsIcESaIcEEESaIS5_EE11_M_allocateEm
FN:350,_ZNSt12_Vector_baseINSt7__cxx1112basic_stringIcSt11char_traitsIcESaIcEEESaIS5_EE13_M_deallocateEPS5_m
FNDA:59,_ZNSt12_Vector_baseINSt7__cxx1112basic_stringIcSt11char_traitsIcESaIcEEESaIS5_EE13_M_deallocateEPS5_m
FN:359,_ZNSt12_Vector_baseINSt7__cxx1112basic_stringIcSt11char_traitsIcESaIcEEESaIS5_EE17_M_create_storageEm
FNDA:8,_ZNSt12_Vector_baseINSt7__cxx1112basic_stringIcSt11char_traitsIcESaIcEEESaIS5_EE17_M_create_storageEm
FN:553,_ZNSt6vectorINSt7__cxx1112basic_stringIcSt11char_traitsIcESaIcEEESaIS5_EEC2ERKS7_
FNDA:8,_ZNSt6vectorINSt7__cxx1112basic_stringIcSt11char_traitsIcESaIcEEESaIS5_EEC2ERKS7_
FN:625,_ZNSt6vectorINSt7__cxx1112basic_stringIcSt11char_traitsIcESaIcEEESaIS5_EEC2ESt16initializer_listIS5_ERKS6_
FNDA:14,_ZNSt6vectorINSt7__cxx1112basic_stringIcSt11char_traitsIcESaIcEEESaIS5_EEC2ESt16initializer_listIS5_ERKS6_
FN:678,_ZNSt6vectorINSt7__cxx1112basic_stringIcSt11char_traitsIcESaIcEEESaIS5_EED2Ev
FNDA:43,_ZNSt6vectorINSt7__cxx1112basic_stringIcSt11char_traitsIcESaIcEEESaIS5_EED2Ev
FN:820,_ZNKSt6vectorINSt7__cxx1112basic_stringIcSt11char_traitsIcESaIcEEESaIS5_EE5beginEv
FNDA:0,_ZNKSt6vectorINSt7__cxx1112basic_stringIcSt11char_traitsIcESaIcEEESaIS5_EE5beginEv
FN:838,_ZNKSt6vectorINSt7__cxx1112basic_stringIcSt11char_traitsIcESaIcEEESaIS5_EE3endEv
FNDA:0,_ZNKSt6vectorINSt7__cxx1112basic_stringIcSt11char_traitsIcESaIcEEESaIS5_EE3endEv
FN:918,_ZNKSt6vectorINSt7__cxx1112basic_stringIcSt11char_traitsIcESaIcEEESaIS5_EE4sizeEv
FNDA:0,_ZNKSt6vectorINSt7__cxx1112basic_stringIcSt11char_traitsIcESaIcEEESaIS5_EE4sizeEv
FN:1577,_ZNSt6vectorINSt7__cxx1112basic_stringIcSt11char_traitsIcESaIcEEESaIS5_EE19_M_range_initializeIPKS5_EEvT_SB_St20forward_iterator_tag
FNDA:14,_ZNSt6vectorINSt7__cxx1112basic_stringIcSt11char_traitsIcESaIcEEESaIS5_EE19_M_range_initializeIPKS5_EEvT_SB_St20forward_iterator_tag
FN:1767,_ZNSt6vectorINSt7__cxx1112basic_stringIcSt11char_traitsIcESaIcEEESaIS5_EE17_S_check_init_lenEmRKS6_
FNDA:14,_ZNSt6vectorINSt7__cxx1112basic_stringIcSt11char_traitsIcESaIcEEESaIS5_EE17_S_check_init_lenEmRKS6_
FN:1776,_ZNSt6vectorINSt7__cxx1112basic_stringIcSt11char_traitsIcESaIcEEESaIS5_EE11_S_max_sizeERKS6_
FNDA:41,_ZNSt6vectorINSt7__cxx1112basic_stringIcSt11char_traitsIcESaIcEEESaIS5_EE11_S_max_sizeERKS6_
DA:97,51
DA:98,51
DA:99,51
DA:136,23
DA:137,23
DA:138,23
DA:276,120
DA:277,120
DA:280,36
DA:281,36
DA:293,15
DA:294,15
DA:303,8
DA:304,8
DA:305,8
DA:333,43
DA:335,43
DA:336,43
DA:337,43
DA:343,38
DA:346,38
DA:350,59
DA:353,59
DA:354,37
DA:355,59
DA:359,8
DA:361,8
DA:362,8
DA:363,8
DA:364,8
DA:553,8
DA:555,8
DA:557,8
DA:558,8
DA:560,8
DA:561,8
DA:625,14
DA:627,14
DA:629,14
DA:630,14
DA:631,14
DA:678,43
DA:680,43
DA:681,43
DA:683,43
DA:820,0
DA:821,0
DA:838,0
DA:839,0
DA:918,0
DA:919,0
DA:1577,14
DA:1580,14
DA:1582,14
DA:1583,14
DA:1584,14
DA:1585,14
DA:1587,14
DA:1588,14
DA:1767,14
DA:1769,14
DA:1770,0
DA:1772,14
DA:1776,41
DA:1781,41
DA:1783,41
DA:1784,41
end_of_record
SF:/usr/include/c++/11/bits/allocator.h
FN:156,_ZNSaINSt7__cxx1112basic_stringIcSt11char_traitsIcESaIcEEEEC2Ev
FNDA:34,_ZNSaINSt7__cxx1112basic_stringIcSt11char_traitsIcESaIcEEEEC2Ev
FN:159,_ZNSaINSt7__cxx1112basic_stringIcSt11char_traitsIcESaIcEEEEC2ERKS5_
FNDA:46,_ZNSaINSt7__cxx1112basic_stringIcSt11char_traitsIcESaIcEEEEC2ERKS5_
FN:174,_ZNSaINSt7__cxx1112basic_stringIcSt11char_traitsIcESaIcEEEED2Ev
FNDA:80,_ZNSaINSt7__cxx1112basic_stringIcSt11char_traitsIcESaIcEEEED2Ev
DA:156,34
DA:159,46
DA:160,46
DA:174,80
end_of_record
SF:/mnt/c/Users/Jeamh/CLionProjects/Examen1/Examen2/ejercicio-2/ext/googletest/googletest/include/gtest/internal/gtest-internal.h
FN:437,_ZN7testing8internal15TestFactoryBaseD2Ev
FNDA:14,_ZN7testing8internal15TestFactoryBaseD2Ev
FN:437,_ZN7testing8internal15TestFactoryBaseD0Ev
FNDA:0,_ZN7testing8internal15TestFactoryBaseD0Ev
FN:444,_ZN7testing8internal15TestFactoryBaseC2Ev
FNDA:14,_ZN7testing8internal15TestFactoryBaseC2Ev
FN:456,_ZN7testing8internal15TestFactoryImplI41MostrarTest_ExpresionPrefijaCompleja_TestE10CreateTestEv
FNDA:1,_ZN7testing8internal15TestFactoryImplI41MostrarTest_ExpresionPrefijaCompleja_TestE10CreateTestEv
FN:456,_ZN7testing8internal15TestFactoryImplI54MostrarTest_ExpresionEjemploMostrarPostfijaExamen_TestE10CreateTestEv
FNDA:1,_ZN7testing8internal15TestFactoryImplI54MostrarTest_ExpresionEjemploMostrarPostfijaExamen_TestE10CreateTestEv
FN:456,_ZN7testing8internal15TestFactoryImplI53MostrarTest_ExpresionEjemploMostrarPrefijaExamen_TestE10CreateTestEv
FNDA:1,_ZN7testing8internal15TestFactoryImplI53MostrarTest_ExpresionEjemploMostrarPrefijaExamen_TestE10CreateTestEv
FN:456,_ZN7testing8internal15TestFactoryImplI41MostrarTest_ExpresionPostfijaComleja_TestE10CreateTestEv
FNDA:1,_ZN7testing8internal15TestFactoryImplI41MostrarTest_ExpresionPostfijaComleja_TestE10CreateTestEv
FN:456,_ZN7testing8internal15TestFactoryImplI38PrefijoTest_EvaluaExpresionSimple_TestE10CreateTestEv
FNDA:1,_ZN7testing8internal15TestFactoryImplI38PrefijoTest_EvaluaExpresionSimple_TestE10CreateTestEv
FN:456,_ZN7testing8internal15TestFactoryImplI40MostrarTest_ExpresionPostfijaSimple_TestE10CreateTestEv
FNDA:1,_ZN7testing8internal15TestFactoryImplI40MostrarTest_ExpresionPostfijaSimple_TestE10CreateTestEv
FN:456,_ZN7testing8internal15TestFactoryImplI39MostrarTest_ExpresionPrefijaSimple_TestE10CreateTestEv
FNDA:1,_ZN7testing8internal15TestFactoryImplI39MostrarTest_ExpresionPrefijaSimple_TestE10CreateTestEv
FN:456,_ZN7testing8internal15TestFactoryImplI32MostrarTest_MostrarDivision_TestE10CreateTestEv
FNDA:1,_ZN7testing8internal15TestFactoryImplI32MostrarTest_MostrarDivision_TestE10CreateTestEv
FN:456,_ZN7testing8internal15TestFactoryImplI49PostfijoTest_MostrarPrefijoParentesisDerecho_TestE10CreateTestEv
FNDA:1,_ZN7testing8internal15TestFactoryImplI49PostfijoTest_MostrarPrefijoParentesisDerecho_TestE10CreateTestEv
FN:456,_ZN7testing8internal15TestFactoryImplI41PostfijoTest_EvaluaExpresionCompleja_TestE10CreateTestEv
FNDA:1,_ZN7testing8internal15TestFactoryImplI41PostfijoTest_EvaluaExpresionCompleja_TestE10CreateTestEv
FN:456,_ZN7testing8internal15TestFactoryImplI39PostfijoTest_EvaluaExpresionSimple_TestE10CreateTestEv
FNDA:1,_ZN7testing8internal15TestFactoryImplI39PostfijoTest_EvaluaExpresionSimple_TestE10CreateTestEv
FN:456,_ZN7testing8internal15TestFactoryImplI38PrefijoTest_EjemploExamenPostEval_TestE10CreateTestEv
FNDA:1,_ZN7testing8internal15TestFactoryImplI38PrefijoTest_EjemploExamenPostEval_TestE10CreateTestEv
FN:456,_ZN7testing8internal15TestFactoryImplI37PrefijoTest_EjemploExamenPreEval_TestE10CreateTestEv
FNDA:1,_ZN7testing8internal15TestFactoryImplI37PrefijoTest_EjemploExamenPreEval_TestE10CreateTestEv
FN:456,_ZN7testing8internal15TestFactoryImplI40PrefijoTest_EvaluaExpresionCompleja_TestE10CreateTestEv
FNDA:1,_ZN7testing8internal15TestFactoryImplI40PrefijoTest_EvaluaExpresionCompleja_TestE10CreateTestEv
FN:477,_ZN7testing8internal12CodeLocationC2ERKNSt7__cxx1112basic_stringIcSt11char_traitsIcESaIcEEEi
FNDA:14,_ZN7testing8internal12CodeLocationC2ERKNSt7__cxx1112basic_stringIcSt11char_traitsIcESaIcEEEi
FN:490,_ZN7testing8internal19GetNotDefaultOrNullEPFvvES2_
FNDA:56,_ZN7testing8internal19GetNotDefaultOrNullEPFvvES2_
FN:505,_ZN7testing8internal16SuiteApiResolverINS_4TestEE19GetSetUpCaseOrSuiteEPKci
FNDA:14,_ZN7testing8internal16SuiteApiResolverINS_4TestEE19GetSetUpCaseOrSuiteEPKci
FN:526,_ZN7testing8internal16SuiteApiResolverINS_4TestEE22GetTearDownCaseOrSuiteEPKci
FNDA:14,_ZN7testing8internal16SuiteApiResolverINS_4TestEE22GetTearDownCaseOrSuiteEPKci
DA:437,0
DA:437,14
DA:444,14
DA:456,1
DA:456,1
DA:456,1
DA:456,1
DA:456,1
DA:456,1
DA:456,1
DA:456,1
DA:456,1
DA:456,1
DA:456,1
DA:456,1
DA:456,1
DA:456,1
DA:477,14
DA:478,14
DA:490,56
DA:492,56
DA:505,14
DA:509,14
DA:511,14
DA:513,14
DA:516,0
DA:518,14
DA:526,14
DA:530,14
DA:532,14
DA:534,14
DA:537,0
DA:539,14
end_of_record
SF:/usr/include/c++/11/bits/char_traits.h
FN:393,_ZNSt11char_traitsIcE6lengthEPKc
FNDA:0,_ZNSt11char_traitsIcE6lengthEPKc
DA:393,0
DA:399,0
end_of_record
SF:/usr/include/c++/11/bits/stl_iterator_base_types.h
FN:238,_ZSt19__iterator_categoryIPcENSt15iterator_traitsIT_E17iterator_categoryERKS2_
FNDA:0,_ZSt19__iterator_categoryIPcENSt15iterator_traitsIT_E17iterator_categoryERKS2_
FN:238,_ZSt19__iterator_categoryIPKNSt7__cxx1112basic_stringIcSt11char_traitsIcESaIcEEEENSt15iterator_traitsIT_E17iterator_categoryERKS9_
FNDA:14,_ZSt19__iterator_categoryIPKNSt7__cxx1112basic_stringIcSt11char_traitsIcESaIcEEEENSt15iterator_traitsIT_E17iterator_categoryERKS9_
FN:238,_ZSt19__iterator_categoryIPKcENSt15iterator_traitsIT_E17iterator_categoryERKS3_
FNDA:0,_ZSt19__iterator_categoryIPKcENSt15iterator_traitsIT_E17iterator_categoryERKS3_
DA:238,0
DA:239,0
DA:238,14
DA:239,14
DA:238,0
DA:239,0
end_of_record
SF:/mnt/c/Users/Jeamh/CLionProjects/Examen1/Examen2/ejercicio-2/ext/googletest/googletest/include/gtest/gtest-assertion-result.h
FN:174,_ZNK7testing15AssertionResultcvbEv
FNDA:14,_ZNK7testing15AssertionResultcvbEv
FN:183,_ZNK7testing15AssertionResult7messageEv
FNDA:0,_ZNK7testing15AssertionResult7messageEv
FN:187,_ZNK7testing15AssertionResult15failure_messageEv
FNDA:0,_ZNK7testing15AssertionResult15failure_messageEv
DA:174,14
DA:183,0
DA:184,0
DA:187,0
end_of_record
SF:/usr/include/c++/11/iostream
end_of_record
SF:/usr/include/c++/11/bits/move.h
FN:49,_ZSt11__addressofINSt7__cxx1112basic_stringIcSt11char_traitsIcESaIcEEEEPT_RS6_
FNDA:270,_ZSt11__addressofINSt7__cxx1112basic_stringIcSt11char_traitsIcESaIcEEEEPT_RS6_
FN:77,_ZSt7forwardIRKNSt7__cxx1112basic_stringIcSt11char_traitsIcESaIcEEEEOT_RNSt16remove_referenceIS8_E4typeE
FNDA:119,_ZSt7forwardIRKNSt7__cxx1112basic_stringIcSt11char_traitsIcESaIcEEEEOT_RNSt16remove_referenceIS8_E4typeE
FN:104,_ZSt4moveIRPNSt7__cxx1112basic_stringIcSt11char_traitsIcESaIcEEEEONSt16remove_referenceIT_E4typeEOS9_
FNDA:0,_ZSt4moveIRPNSt7__cxx1112basic_stringIcSt11char_traitsIcESaIcEEEEONSt16remove_referenceIT_E4typeEOS9_
FN:104,_ZSt4moveIRPNSt7__cxx1118basic_stringstreamIcSt11char_traitsIcESaIcEEEEONSt16remove_referenceIT_E4typeEOS9_
FNDA:72,_ZSt4moveIRPNSt7__cxx1118basic_stringstreamIcSt11char_traitsIcESaIcEEEEONSt16remove_referenceIT_E4typeEOS9_
FN:104,_ZSt4moveIRSaIcEEONSt16remove_referenceIT_E4typeEOS3_
FNDA:0,_ZSt4moveIRSaIcEEONSt16remove_referenceIT_E4typeEOS3_
DA:49,270
DA:50,270
DA:77,119
DA:78,119
DA:104,0
DA:105,0
DA:104,72
DA:105,72
DA:104,0
DA:105,0
end_of_record
SF:/usr/include/c++/11/bits/alloc_traits.h
FN:463,_ZNSt16allocator_traitsISaINSt7__cxx1112basic_stringIcSt11char_traitsIcESaIcEEEEE8allocateERS6_m
FNDA:37,_ZNSt16allocator_traitsISaINSt7__cxx1112basic_stringIcSt11char_traitsIcESaIcEEEEE8allocateERS6_m
FN:495,_ZNSt16allocator_traitsISaINSt7__cxx1112basic_stringIcSt11char_traitsIcESaIcEEEEE10deallocateERS6_PS5_m
FNDA:37,_ZNSt16allocator_traitsISaINSt7__cxx1112basic_stringIcSt11char_traitsIcESaIcEEEEE10deallocateERS6_PS5_m
FN:547,_ZNSt16allocator_traitsISaINSt7__cxx1112basic_stringIcSt11char_traitsIcESaIcEEEEE8max_sizeERKS6_
FNDA:41,_ZNSt16allocator_traitsISaINSt7__cxx1112basic_stringIcSt11char_traitsIcESaIcEEEEE8max_sizeERKS6_
FN:562,_ZNSt16allocator_traitsISaINSt7__cxx1112basic_stringIcSt11char_traitsIcESaIcEEEEE37select_on_container_copy_constructionERKS6_
FNDA:8,_ZNSt16allocator_traitsISaINSt7__cxx1112basic_stringIcSt11char_traitsIcESaIcEEEEE37select_on_container_copy_constructionERKS6_
FN:562,_ZNSt16allocator_traitsISaIcEE37select_on_container_copy_constructionERKS0_
FNDA:0,_ZNSt16allocator_traitsISaIcEE37select_on_container_copy_constructionERKS0_
FN:845,_ZSt8_DestroyIPNSt7__cxx1112basic_stringIcSt11char_traitsIcESaIcEEES5_EvT_S7_RSaIT0_E
FNDA:43,_ZSt8_DestroyIPNSt7__cxx1112basic_stringIcSt11char_traitsIcESaIcEEES5_EvT_S7_RSaIT0_E
DA:463,37
DA:464,37
DA:495,37
DA:496,37
DA:547,41
DA:550,41
DA:562,8
DA:563,8
DA:562,0
DA:563,0
DA:845,43
DA:848,43
DA:849,43
end_of_record
SF:/usr/include/c++/11/tuple
FN:124,_ZNSt10_Head_baseILm1ESt14default_deleteINSt7__cxx1118basic_stringstreamIcSt11char_traitsIcESaIcEEEELb1EE7_M_headERS8_
FNDA:72,_ZNSt10_Head_baseILm1ESt14default_deleteINSt7__cxx1118basic_stringstreamIcSt11char_traitsIcESaIcEEEELb1EE7_M_headERS8_
FN:124,_ZNSt10_Head_baseILm1ESt14default_deleteINSt7__cxx1112basic_stringIcSt11char_traitsIcESaIcEEEELb1EE7_M_headERS8_
FNDA:0,_ZNSt10_Head_baseILm1ESt14default_deleteINSt7__cxx1112basic_stringIcSt11char_traitsIcESaIcEEEELb1EE7_M_headERS8_
FN:233,_ZNSt10_Head_baseILm0EPNSt7__cxx1112basic_stringIcSt11char_traitsIcESaIcEEELb0EE7_M_headERS7_
FNDA:14,_ZNSt10_Head_baseILm0EPNSt7__cxx1112basic_stringIcSt11char_traitsIcESaIcEEELb0EE7_M_headERS7_
FN:233,_ZNSt10_Head_baseILm0EPNSt7__cxx1118basic_stringstreamIcSt11char_traitsIcESaIcEEELb0EE7_M_headERS7_
FNDA:144,_ZNSt10_Head_baseILm0EPNSt7__cxx1118basic_stringstreamIcSt11char_traitsIcESaIcEEELb0EE7_M_headERS7_
FN:236,_ZNSt10_Head_baseILm0EPNSt7__cxx1112basic_stringIcSt11char_traitsIcESaIcEEELb0EE7_M_headERKS7_
FNDA:0,_ZNSt10_Head_baseILm0EPNSt7__cxx1112basic_stringIcSt11char_traitsIcESaIcEEELb0EE7_M_headERKS7_
FN:268,_ZNSt11_Tuple_implILm0EJPNSt7__cxx1112basic_stringIcSt11char_traitsIcESaIcEEESt14default_deleteIS5_EEE7_M_headERS9_
FNDA:14,_ZNSt11_Tuple_implILm0EJPNSt7__cxx1112basic_stringIcSt11char_traitsIcESaIcEEESt14default_deleteIS5_EEE7_M_headERS9_
FN:268,_ZNSt11_Tuple_implILm0EJPNSt7__cxx1118basic_stringstreamIcSt11char_traitsIcESaIcEEESt14default_deleteIS5_EEE7_M_headERS9_
FNDA:144,_ZNSt11_Tuple_implILm0EJPNSt7__cxx1118basic_stringstreamIcSt11char_traitsIcESaIcEEESt14default_deleteIS5_EEE7_M_headERS9_
FN:271,_ZNSt11_Tuple_implILm0EJPNSt7__cxx1112basic_stringIcSt11char_traitsIcESaIcEEESt14default_deleteIS5_EEE7_M_headERKS9_
FNDA:0,_ZNSt11_Tuple_implILm0EJPNSt7__cxx1112basic_stringIcSt11char_traitsIcESaIcEEESt14default_deleteIS5_EEE7_M_headERKS9_
FN:424,_ZNSt11_Tuple_implILm1EJSt14default_deleteINSt7__cxx1118basic_stringstreamIcSt11char_traitsIcESaIcEEEEEE7_M_headERS8_
FNDA:72,_ZNSt11_Tuple_implILm1EJSt14default_deleteINSt7__cxx1118basic_stringstreamIcSt11char_traitsIcESaIcEEEEEE7_M_headERS8_
FN:424,_ZNSt11_Tuple_implILm1EJSt14default_deleteINSt7__cxx1112basic_stringIcSt11char_traitsIcESaIcEEEEEE7_M_headERS8_
FNDA:0,_ZNSt11_Tuple_implILm1EJSt14default_deleteINSt7__cxx1112basic_stringIcSt11char_traitsIcESaIcEEEEEE7_M_headERS8_
FN:1377,_ZSt12__get_helperILm1ESt14default_deleteINSt7__cxx1118basic_stringstreamIcSt11char_traitsIcESaIcEEEEJEERT0_RSt11_Tuple_implIXT_EJS8_DpT1_EE
FNDA:72,_ZSt12__get_helperILm1ESt14default_deleteINSt7__cxx1118basic_stringstreamIcSt11char_traitsIcESaIcEEEEJEERT0_RSt11_Tuple_implIXT_EJS8_DpT1_EE
FN:1377,_ZSt12__get_helperILm0EPNSt7__cxx1118basic_stringstreamIcSt11char_traitsIcESaIcEEEJSt14default_deleteIS5_EEERT0_RSt11_Tuple_implIXT_EJS9_DpT1_EE
FNDA:144,_ZSt12__get_helperILm0EPNSt7__cxx1118basic_stringstreamIcSt11char_traitsIcESaIcEEEJSt14default_deleteIS5_EEERT0_RSt11_Tuple_implIXT_EJS9_DpT1_EE
FN:1377,_ZSt12__get_helperILm0EPNSt7__cxx1112basic_stringIcSt11char_traitsIcESaIcEEEJSt14default_deleteIS5_EEERT0_RSt11_Tuple_implIXT_EJS9_DpT1_EE
FNDA:14,_ZSt12__get_helperILm0EPNSt7__cxx1112basic_stringIcSt11char_traitsIcESaIcEEEJSt14default_deleteIS5_EEERT0_RSt11_Tuple_implIXT_EJS9_DpT1_EE
FN:1377,_ZSt12__get_helperILm1ESt14default_deleteINSt7__cxx1112basic_stringIcSt11char_traitsIcESaIcEEEEJEERT0_RSt11_Tuple_implIXT_EJS8_DpT1_EE
FNDA:0,_ZSt12__get_helperILm1ESt14default_deleteINSt7__cxx1112basic_stringIcSt11char_traitsIcESaIcEEEEJEERT0_RSt11_Tuple_implIXT_EJS8_DpT1_EE
FN:1382,_ZSt12__get_helperILm0EPNSt7__cxx1112basic_stringIcSt11char_traitsIcESaIcEEEJSt14default_deleteIS5_EEERKT0_RKSt11_Tuple_implIXT_EJS9_DpT1_EE
FNDA:0,_ZSt12__get_helperILm0EPNSt7__cxx1112basic_stringIcSt11char_traitsIcESaIcEEEJSt14default_deleteIS5_EEERKT0_RKSt11_Tuple_implIXT_EJS9_DpT1_EE
FN:1393,_ZSt3getILm1EJPNSt7__cxx1118basic_stringstreamIcSt11char_traitsIcESaIcEEESt14default_deleteIS5_EEERNSt13tuple_elementIXT_ESt5tupleIJDpT0_EEE4typeERSD_
FNDA:72,_ZSt3getILm1EJPNSt7__cxx1118basic_stringstreamIcSt11char_traitsIcESaIcEEESt14default_deleteIS5_EEERNSt13tuple_elementIXT_ESt5tupleIJDpT0_EEE4typeERSD_
FN:1393,_ZSt3getILm1EJPNSt7__cxx1112basic_stringIcSt11char_traitsIcESaIcEEESt14default_deleteIS5_EEERNSt13tuple_elementIXT_ESt5tupleIJDpT0_EEE4typeERSD_
FNDA:0,_ZSt3getILm1EJPNSt7__cxx1112basic_stringIcSt11char_traitsIcESaIcEEESt14default_deleteIS5_EEERNSt13tuple_elementIXT_ESt5tupleIJDpT0_EEE4typeERSD_
FN:1393,_ZSt3getILm0EJPNSt7__cxx1112basic_stringIcSt11char_traitsIcESaIcEEESt14default_deleteIS5_EEERNSt13tuple_elementIXT_ESt5tupleIJDpT0_EEE4typeERSD_
FNDA:14,_ZSt3getILm0EJPNSt7__cxx1112basic_stringIcSt11char_traitsIcESaIcEEESt14default_deleteIS5_EEERNSt13tuple_elementIXT_ESt5tupleIJDpT0_EEE4typeERSD_
FN:1393,_ZSt3getILm0EJPNSt7__cxx1118basic_stringstreamIcSt11char_traitsIcESaIcEEESt14default_deleteIS5_EEERNSt13tuple_elementIXT_ESt5tupleIJDpT0_EEE4typeERSD_
FNDA:144,_ZSt3getILm0EJPNSt7__cxx1118basic_stringstreamIcSt11char_traitsIcESaIcEEESt14default_deleteIS5_EEERNSt13tuple_elementIXT_ESt5tupleIJDpT0_EEE4typeERSD_
FN:1399,_ZSt3getILm0EJPNSt7__cxx1112basic_stringIcSt11char_traitsIcESaIcEEESt14default_deleteIS5_EEERKNSt13tuple_elementIXT_ESt5tupleIJDpT0_EEE4typeERKSD_
FNDA:0,_ZSt3getILm0EJPNSt7__cxx1112basic_stringIcSt11char_traitsIcESaIcEEESt14default_deleteIS5_EEERKNSt13tuple_elementIXT_ESt5tupleIJDpT0_EEE4typeERKSD_
DA:124,72
DA:124,0
DA:233,14
DA:233,144
DA:236,0
DA:268,14
DA:268,144
DA:271,0
DA:424,72
DA:424,0
DA:1377,72
DA:1378,72
DA:1377,0
DA:1378,0
DA:1377,14
DA:1378,14
DA:1377,144
DA:1378,144
DA:1382,0
DA:1383,0
DA:1393,72
DA:1394,72
DA:1393,0
DA:1394,0
DA:1393,14
DA:1394,14
DA:1393,144
DA:1394,144
DA:1399,0
DA:1400,0
end_of_record
SF:/mnt/c/Users/Jeamh/CLionProjects/Examen1/Examen2/ejercicio-2/ext/googletest/googletest/include/gtest/gtest.h
FN:255,_ZN7testing4Test14SetUpTestSuiteEv
FNDA:0,_ZN7testing4Test14SetUpTestSuiteEv
FN:263,_ZN7testing4Test17TearDownTestSuiteEv
FNDA:0,_ZN7testing4Test17TearDownTestSuiteEv
FN:268,_ZN7testing4Test16TearDownTestCaseEv
FNDA:0,_ZN7testing4Test16TearDownTestCaseEv
FN:269,_ZN7testing4Test13SetUpTestCaseEv
FNDA:0,_ZN7testing4Test13SetUpTestCaseEv
FN:356,_ZN7testing4Test5SetupEv
FNDA:0,_ZN7testing4Test5SetupEv
FN:1358,_ZN7testing8internal18CmpHelperEQFailureINSt7__cxx1112basic_stringIcSt11char_traitsIcESaIcEEEA16_cEENS_15AssertionResultEPKcSB_RKT_RKT0_
FNDA:0,_ZN7testing8internal18CmpHelperEQFailureINSt7__cxx1112basic_stringIcSt11char_traitsIcESaIcEEEA16_cEENS_15AssertionResultEPKcSB_RKT_RKT0_
FN:1358,_ZN7testing8internal18CmpHelperEQFailureIiiEENS_15AssertionResultEPKcS4_RKT_RKT0_
FNDA:0,_ZN7testing8internal18CmpHelperEQFailureIiiEENS_15AssertionResultEPKcS4_RKT_RKT0_
FN:1358,_ZN7testing8internal18CmpHelperEQFailureINSt7__cxx1112basic_stringIcSt11char_traitsIcESaIcEEEA12_cEENS_15AssertionResultEPKcSB_RKT_RKT0_
FNDA:0,_ZN7testing8internal18CmpHelperEQFailureINSt7__cxx1112basic_stringIcSt11char_traitsIcESaIcEEEA12_cEENS_15AssertionResultEPKcSB_RKT_RKT0_
FN:1358,_ZN7testing8internal18CmpHelperEQFailureINSt7__cxx1112basic_stringIcSt11char_traitsIcESaIcEEEA6_cEENS_15AssertionResultEPKcSB_RKT_RKT0_
FNDA:0,_ZN7testing8internal18CmpHelperEQFailureINSt7__cxx1112basic_stringIcSt11char_traitsIcESaIcEEEA6_cEENS_15AssertionResultEPKcSB_RKT_RKT0_
FN:1358,_ZN7testing8internal18CmpHelperEQFailureINSt7__cxx1112basic_stringIcSt11char_traitsIcESaIcEEEA20_cEENS_15AssertionResultEPKcSB_RKT_RKT0_
FNDA:0,_ZN7testing8internal18CmpHelperEQFailureINSt7__cxx1112basic_stringIcSt11char_traitsIcESaIcEEEA20_cEENS_15AssertionResultEPKcSB_RKT_RKT0_
FN:1375,_ZN7testing8internal11CmpHelperEQINSt7__cxx1112basic_stringIcSt11char_traitsIcESaIcEEEA16_cEENS_15AssertionResultEPKcSB_RKT_RKT0_
FNDA:3,_ZN7testing8internal11CmpHelperEQINSt7__cxx1112basic_stringIcSt11char_traitsIcESaIcEEEA16_cEENS_15AssertionResultEPKcSB_RKT_RKT0_
FN:1375,_ZN7testing8internal11CmpHelperEQINSt7__cxx1112basic_stringIcSt11char_traitsIcESaIcEEEA6_cEENS_15AssertionResultEPKcSB_RKT_RKT0_
FNDA:2,_ZN7testing8internal11CmpHelperEQINSt7__cxx1112basic_stringIcSt11char_traitsIcESaIcEEEA6_cEENS_15AssertionResultEPKcSB_RKT_RKT0_
FN:1375,_ZN7testing8internal11CmpHelperEQINSt7__cxx1112basic_stringIcSt11char_traitsIcESaIcEEEA12_cEENS_15AssertionResultEPKcSB_RKT_RKT0_
FNDA:2,_ZN7testing8internal11CmpHelperEQINSt7__cxx1112basic_stringIcSt11char_traitsIcESaIcEEEA12_cEENS_15AssertionResultEPKcSB_RKT_RKT0_
FN:1375,_ZN7testing8internal11CmpHelperEQIiiEENS_15AssertionResultEPKcS4_RKT_RKT0_
FNDA:6,_ZN7testing8internal11CmpHelperEQIiiEENS_15AssertionResultEPKcS4_RKT_RKT0_
FN:1375,_ZN7testing8internal11CmpHelperEQINSt7__cxx1112basic_stringIcSt11char_traitsIcESaIcEEEA20_cEENS_15AssertionResultEPKcSB_RKT_RKT0_
FNDA:1,_ZN7testing8internal11CmpHelperEQINSt7__cxx1112basic_stringIcSt11char_traitsIcESaIcEEEA20_cEENS_15AssertionResultEPKcSB_RKT_RKT0_
FN:1394,_ZN7testing8internal8EqHelper7CompareINSt7__cxx1112basic_stringIcSt11char_traitsIcESaIcEEEA20_cLPv0EEENS_15AssertionResultEPKcSD_RKT_RKT0_
FNDA:1,_ZN7testing8internal8EqHelper7CompareINSt7__cxx1112basic_stringIcSt11char_traitsIcESaIcEEEA20_cLPv0EEENS_15AssertionResultEPKcSD_RKT_RKT0_
FN:1394,_ZN7testing8internal8EqHelper7CompareINSt7__cxx1112basic_stringIcSt11char_traitsIcESaIcEEEA16_cLPv0EEENS_15AssertionResultEPKcSD_RKT_RKT0_
FNDA:3,_ZN7testing8internal8EqHelper7CompareINSt7__cxx1112basic_stringIcSt11char_traitsIcESaIcEEEA16_cLPv0EEENS_15AssertionResultEPKcSD_RKT_RKT0_
FN:1394,_ZN7testing8internal8EqHelper7CompareINSt7__cxx1112basic_stringIcSt11char_traitsIcESaIcEEEA6_cLPv0EEENS_15AssertionResultEPKcSD_RKT_RKT0_
FNDA:2,_ZN7testing8internal8EqHelper7CompareINSt7__cxx1112basic_stringIcSt11char_traitsIcESaIcEEEA6_cLPv0EEENS_15AssertionResultEPKcSD_RKT_RKT0_
FN:1394,_ZN7testing8internal8EqHelper7CompareINSt7__cxx1112basic_stringIcSt11char_traitsIcESaIcEEEA12_cLPv0EEENS_15AssertionResultEPKcSD_RKT_RKT0_
FNDA:2,_ZN7testing8internal8EqHelper7CompareINSt7__cxx1112basic_stringIcSt11char_traitsIcESaIcEEEA12_cLPv0EEENS_15AssertionResultEPKcSD_RKT_RKT0_
FN:1394,_ZN7testing8internal8EqHelper7CompareIiiLPv0EEENS_15AssertionResultEPKcS6_RKT_RKT0_
FNDA:6,_ZN7testing8internal8EqHelper7CompareIiiLPv0EEENS_15AssertionResultEPKcS6_RKT_RKT0_
DA:255,0
DA:263,0
DA:268,0
DA:269,0
DA:356,0
DA:1358,0
DA:1363,0
DA:1358,0
DA:1363,0
DA:1358,0
DA:1363,0
DA:1358,0
DA:1363,0
DA:1358,0
DA:1363,0
DA:1375,1
DA:1378,1
DA:1379,1
DA:1382,0
DA:1375,3
DA:1378,3
DA:1379,3
DA:1382,0
DA:1375,2
DA:1378,2
DA:1379,2
DA:1382,0
DA:1375,2
DA:1378,2
DA:1379,2
DA:1382,0
DA:1375,6
DA:1378,6
DA:1379,6
DA:1382,0
DA:1394,1
DA:1397,1
DA:1394,3
DA:1397,3
DA:1394,2
DA:1397,2
DA:1394,2
DA:1397,2
DA:1394,6
DA:1397,6
end_of_record
SF:/usr/include/c++/11/bits/stl_uninitialized.h
FN:85,_ZNSt20__uninitialized_copyILb0EE13__uninit_copyIPKNSt7__cxx1112basic_stringIcSt11char_traitsIcESaIcEEEPS7_EET0_T_SC_SB_
FNDA:14,_ZNSt20__uninitialized_copyILb0EE13__uninit_copyIPKNSt7__cxx1112basic_stringIcSt11char_traitsIcESaIcEEEPS7_EET0_T_SC_SB_
FN:85,_ZNSt20__uninitialized_copyILb0EE13__uninit_copyIN9__gnu_cxx17__normal_iteratorIPKNSt7__cxx1112basic_stringIcSt11char_traitsIcESaIcEEESt6vectorIS9_SaIS9_EEEEPS9_EET0_T_SI_SH_
FNDA:8,_ZNSt20__uninitialized_copyILb0EE13__uninit_copyIN9__gnu_cxx17__normal_iteratorIPKNSt7__cxx1112basic_stringIcSt11char_traitsIcESaIcEEESt6vectorIS9_SaIS9_EEEEPS9_EET0_T_SI_SH_
FN:126,_ZSt18uninitialized_copyIPKNSt7__cxx1112basic_stringIcSt11char_traitsIcESaIcEEEPS5_ET0_T_SA_S9_
FNDA:14,_ZSt18uninitialized_copyIPKNSt7__cxx1112basic_stringIcSt11char_traitsIcESaIcEEEPS5_ET0_T_SA_S9_
FN:126,_ZSt18uninitialized_copyIN9__gnu_cxx17__normal_iteratorIPKNSt7__cxx1112basic_stringIcSt11char_traitsIcESaIcEEESt6vectorIS7_SaIS7_EEEEPS7_ET0_T_SG_SF_
FNDA:8,_ZSt18uninitialized_copyIN9__gnu_cxx17__normal_iteratorIPKNSt7__cxx1112basic_stringIcSt11char_traitsIcESaIcEEESt6vectorIS7_SaIS7_EEEEPS7_ET0_T_SG_SF_
FN:331,_ZSt22__uninitialized_copy_aIPKNSt7__cxx1112basic_stringIcSt11char_traitsIcESaIcEEEPS5_S5_ET0_T_SA_S9_RSaIT1_E
FNDA:14,_ZSt22__uninitialized_copy_aIPKNSt7__cxx1112basic_stringIcSt11char_traitsIcESaIcEEEPS5_S5_ET0_T_SA_S9_RSaIT1_E
FN:331,_ZSt22__uninitialized_copy_aIN9__gnu_cxx17__normal_iteratorIPKNSt7__cxx1112basic_stringIcSt11char_traitsIcESaIcEEESt6vectorIS7_SaIS7_EEEEPS7_S7_ET0_T_SG_SF_RSaIT1_E
FNDA:8,_ZSt22__uninitialized_copy_aIN9__gnu_cxx17__normal_iteratorIPKNSt7__cxx1112basic_stringIcSt11char_traitsIcESaIcEEESt6vectorIS7_SaIS7_EEEEPS7_S7_ET0_T_SG_SF_RSaIT1_E
DA:85,14
DA:88,14
DA:91,96
DA:92,82
DA:93,14
DA:95,0
DA:97,0
DA:98,0
DA:85,8
DA:88,8
DA:91,45
DA:92,37
DA:93,8
DA:95,0
DA:97,0
DA:98,0
DA:126,14
DA:145,14
DA:151,14
DA:126,8
DA:145,8
DA:151,8
DA:331,14
DA:333,14
DA:331,8
DA:333,8
end_of_record
SF:/usr/include/c++/11/bits/stl_algobase.h
FN:230,_ZSt3minImERKT_S2_S2_
FNDA:0,_ZSt3minImERKT_S2_S2_
DA:230,0
DA:235,0
DA:236,0
DA:237,0
end_of_record
SF:/mnt/c/Users/Jeamh/CLionProjects/Examen1/Examen2/ejercicio-2/src/test.cpp
FN:5,_ZN38PrefijoTest_EvaluaExpresionSimple_TestC2Ev
FNDA:1,_ZN38PrefijoTest_EvaluaExpresionSimple_TestC2Ev
FN:5,_ZN38PrefijoTest_EvaluaExpresionSimple_Test8TestBodyEv
FNDA:1,_ZN38PrefijoTest_EvaluaExpresionSimple_Test8TestBodyEv
FN:5,_ZN38PrefijoTest_EvaluaExpresionSimple_TestD2Ev
FNDA:1,_ZN38PrefijoTest_EvaluaExpresionSimple_TestD2Ev
FN:5,_ZN38PrefijoTest_EvaluaExpresionSimple_TestD0Ev
FNDA:1,_ZN38PrefijoTest_EvaluaExpresionSimple_TestD0Ev
FN:11,_ZN40PrefijoTest_EvaluaExpresionCompleja_TestC2Ev
FNDA:1,_ZN40PrefijoTest_EvaluaExpresionCompleja_TestC2Ev
FN:11,_ZN40PrefijoTest_EvaluaExpresionCompleja_Test8TestBodyEv
FNDA:1,_ZN40PrefijoTest_EvaluaExpresionCompleja_Test8TestBodyEv
FN:11,_ZN40PrefijoTest_EvaluaExpresionCompleja_TestD2Ev
FNDA:1,_ZN40PrefijoTest_EvaluaExpresionCompleja_TestD2Ev
FN:11,_ZN40PrefijoTest_EvaluaExpresionCompleja_TestD0Ev
FNDA:1,_ZN40PrefijoTest_EvaluaExpresionCompleja_TestD0Ev
FN:18,_ZN37PrefijoTest_EjemploExamenPreEval_TestC2Ev
FNDA:1,_ZN37PrefijoTest_EjemploExamenPreEval_TestC2Ev
FN:18,_ZN37PrefijoTest_EjemploExamenPreEval_Test8TestBodyEv
FNDA:1,_ZN37PrefijoTest_EjemploExamenPreEval_Test8TestBodyEv
FN:18,_ZN37PrefijoTest_EjemploExamenPreEval_TestD2Ev
FNDA:1,_ZN37PrefijoTest_EjemploExamenPreEval_TestD2Ev
FN:18,_ZN37PrefijoTest_EjemploExamenPreEval_TestD0Ev
FNDA:1,_ZN37PrefijoTest_EjemploExamenPreEval_TestD0Ev
FN:25,_ZN38PrefijoTest_EjemploExamenPostEval_TestC2Ev
FNDA:1,_ZN38PrefijoTest_EjemploExamenPostEval_TestC2Ev
FN:25,_ZN38PrefijoTest_EjemploExamenPostEval_Test8TestBodyEv
FNDA:1,_ZN38PrefijoTest_EjemploExamenPostEval_Test8TestBodyEv
FN:25,_ZN38PrefijoTest_EjemploExamenPostEval_TestD2Ev
FNDA:1,_ZN38PrefijoTest_EjemploExamenPostEval_TestD2Ev
FN:25,_ZN38PrefijoTest_EjemploExamenPostEval_TestD0Ev
FNDA:1,_ZN38PrefijoTest_EjemploExamenPostEval_TestD0Ev
FN:32,_ZN39PostfijoTest_EvaluaExpresionSimple_TestD2Ev
FNDA:1,_ZN39PostfijoTest_EvaluaExpresionSimple_TestD2Ev
FN:32,_ZN39PostfijoTest_EvaluaExpresionSimple_TestD0Ev
FNDA:1,_ZN39PostfijoTest_EvaluaExpresionSimple_TestD0Ev
FN:32,_ZN39PostfijoTest_EvaluaExpresionSimple_Test8TestBodyEv
FNDA:1,_ZN39PostfijoTest_EvaluaExpresionSimple_Test8TestBodyEv
FN:32,_ZN39PostfijoTest_EvaluaExpresionSimple_TestC2Ev
FNDA:1,_ZN39PostfijoTest_EvaluaExpresionSimple_TestC2Ev
FN:38,_ZN41PostfijoTest_EvaluaExpresionCompleja_TestC2Ev
FNDA:1,_ZN41PostfijoTest_EvaluaExpresionCompleja_TestC2Ev
FN:38,_ZN41PostfijoTest_EvaluaExpresionCompleja_TestD0Ev
FNDA:1,_ZN41PostfijoTest_EvaluaExpresionCompleja_TestD0Ev
FN:38,_ZN41PostfijoTest_EvaluaExpresionCompleja_TestD2Ev
FNDA:1,_ZN41PostfijoTest_EvaluaExpresionCompleja_TestD2Ev
FN:38,_ZN41PostfijoTest_EvaluaExpresionCompleja_Test8TestBodyEv
FNDA:1,_ZN41PostfijoTest_EvaluaExpresionCompleja_Test8TestBodyEv
FN:45,_ZN49PostfijoTest_MostrarPrefijoParentesisDerecho_TestC2Ev
FNDA:1,_ZN49PostfijoTest_MostrarPrefijoParentesisDerecho_TestC2Ev
FN:45,_ZN49PostfijoTest_MostrarPrefijoParentesisDerecho_Test8TestBodyEv
FNDA:1,_ZN49PostfijoTest_MostrarPrefijoParentesisDerecho_Test8TestBodyEv
FN:45,_ZN49PostfijoTest_MostrarPrefijoParentesisDerecho_TestD0Ev
FNDA:1,_ZN49PostfijoTest_MostrarPrefijoParentesisDerecho_TestD0Ev
FN:45,_ZN49PostfijoTest_MostrarPrefijoParentesisDerecho_TestD2Ev
FNDA:1,_ZN49PostfijoTest_MostrarPrefijoParentesisDerecho_TestD2Ev
FN:51,_ZN32MostrarTest_MostrarDivision_TestD0Ev
FNDA:1,_ZN32MostrarTest_MostrarDivision_TestD0Ev
FN:51,_ZN32MostrarTest_MostrarDivision_Test8TestBodyEv
FNDA:1,_ZN32MostrarTest_MostrarDivision_Test8TestBodyEv
FN:51,_ZN32MostrarTest_MostrarDivision_TestD2Ev
FNDA:1,_ZN32MostrarTest_MostrarDivision_TestD2Ev
FN:51,_ZN32MostrarTest_MostrarDivision_TestC2Ev
FNDA:1,_ZN32MostrarTest_MostrarDivision_TestC2Ev
FN:58,_ZN39MostrarTest_ExpresionPrefijaSimple_TestD0Ev
FNDA:1,_ZN39MostrarTest_ExpresionPrefijaSimple_TestD0Ev
FN:58,_ZN39MostrarTest_ExpresionPrefijaSimple_TestD2Ev
FNDA:1,_ZN39MostrarTest_ExpresionPrefijaSimple_TestD2Ev
FN:58,_ZN39MostrarTest_ExpresionPrefijaSimple_TestC2Ev
FNDA:1,_ZN39MostrarTest_ExpresionPrefijaSimple_TestC2Ev
FN:58,_ZN39MostrarTest_ExpresionPrefijaSimple_Test8TestBodyEv
FNDA:1,_ZN39MostrarTest_ExpresionPrefijaSimple_Test8TestBodyEv
FN:65,_ZN40MostrarTest_ExpresionPostfijaSimple_TestD0Ev
FNDA:1,_ZN40MostrarTest_ExpresionPostfijaSimple_TestD0Ev
FN:65,_ZN40MostrarTest_ExpresionPostfijaSimple_Test8TestBodyEv
FNDA:1,_ZN40MostrarTest_ExpresionPostfijaSimple_Test8TestBodyEv
FN:65,_ZN40MostrarTest_ExpresionPostfijaSimple_TestC2Ev
FNDA:1,_ZN40MostrarTest_ExpresionPostfijaSimple_TestC2Ev
FN:65,_ZN40MostrarTest_ExpresionPostfijaSimple_TestD2Ev
FNDA:1,_ZN40MostrarTest_ExpresionPostfijaSimple_TestD2Ev
FN:72,_ZN41MostrarTest_ExpresionPrefijaCompleja_TestC2Ev
FNDA:1,_ZN41MostrarTest_ExpresionPrefijaCompleja_TestC2Ev
FN:72,_ZN41MostrarTest_ExpresionPrefijaCompleja_TestD0Ev
FNDA:1,_ZN41MostrarTest_ExpresionPrefijaCompleja_TestD0Ev
FN:72,_ZN41MostrarTest_ExpresionPrefijaCompleja_TestD2Ev
FNDA:1,_ZN41MostrarTest_ExpresionPrefijaCompleja_TestD2Ev
FN:72,_ZN41MostrarTest_ExpresionPrefijaCompleja_Test8TestBodyEv
FNDA:1,_ZN41MostrarTest_ExpresionPrefijaCompleja_Test8TestBodyEv
FN:79,_ZN41MostrarTest_ExpresionPostfijaComleja_TestD0Ev
FNDA:1,_ZN41MostrarTest_ExpresionPostfijaComleja_TestD0Ev
FN:79,_ZN41MostrarTest_ExpresionPostfijaComleja_TestC2Ev
FNDA:1,_ZN41MostrarTest_ExpresionPostfijaComleja_TestC2Ev
FN:79,_ZN41MostrarTest_ExpresionPostfijaComleja_TestD2Ev
FNDA:1,_ZN41MostrarTest_ExpresionPostfijaComleja_TestD2Ev
FN:79,_ZN41MostrarTest_ExpresionPostfijaComleja_Test8TestBodyEv
FNDA:1,_ZN41MostrarTest_ExpresionPostfijaComleja_Test8TestBodyEv
FN:86,_ZN53MostrarTest_ExpresionEjemploMostrarPrefijaExamen_TestD0Ev
FNDA:1,_ZN53MostrarTest_ExpresionEjemploMostrarPrefijaExamen_TestD0Ev
FN:86,_ZN53MostrarTest_ExpresionEjemploMostrarPrefijaExamen_Test8TestBodyEv
FNDA:1,_ZN53MostrarTest_ExpresionEjemploMostrarPrefijaExamen_Test8TestBodyEv
FN:86,_ZN53MostrarTest_ExpresionEjemploMostrarPrefijaExamen_TestC2Ev
FNDA:1,_ZN53MostrarTest_ExpresionEjemploMostrarPrefijaExamen_TestC2Ev
FN:86,_ZN53MostrarTest_ExpresionEjemploMostrarPrefijaExamen_TestD2Ev
FNDA:1,_ZN53MostrarTest_ExpresionEjemploMostrarPrefijaExamen_TestD2Ev
FN:93,_ZN54MostrarTest_ExpresionEjemploMostrarPostfijaExamen_Test8TestBodyEv
FNDA:1,_ZN54MostrarTest_ExpresionEjemploMostrarPostfijaExamen_Test8TestBodyEv
FN:93,_ZN54MostrarTest_ExpresionEjemploMostrarPostfijaExamen_TestC2Ev
FNDA:1,_ZN54MostrarTest_ExpresionEjemploMostrarPostfijaExamen_TestC2Ev
FN:93,_ZN54MostrarTest_ExpresionEjemploMostrarPostfijaExamen_TestD2Ev
FNDA:1,_ZN54MostrarTest_ExpresionEjemploMostrarPostfijaExamen_TestD2Ev
FN:93,_ZN54MostrarTest_ExpresionEjemploMostrarPostfijaExamen_TestD0Ev
FNDA:1,_ZN54MostrarTest_ExpresionEjemploMostrarPostfijaExamen_TestD0Ev
DA:5,1
DA:5,1
DA:5,1
DA:5,1
DA:6,6
DA:7,1
DA:8,1
DA:9,1
DA:11,1
DA:11,1
DA:11,1
DA:11,1
DA:12,10
DA:13,1
DA:14,1
DA:15,1
DA:18,1
DA:18,1
DA:18,1
DA:18,1
DA:19,10
DA:20,1
DA:21,1
DA:22,1
DA:25,1
DA:25,1
DA:25,1
DA:25,1
DA:26,12
DA:27,1
DA:28,1
DA:29,1
DA:32,1
DA:32,1
DA:32,1
DA:32,1
DA:33,6
DA:34,1
DA:35,1
DA:36,1
DA:38,1
DA:38,1
DA:38,1
DA:38,1
DA:39,10
DA:40,1
DA:41,1
DA:42,1
DA:45,1
DA:45,1
DA:45,1
DA:45,1
DA:46,8
DA:47,2
DA:48,1
DA:49,1
DA:51,1
DA:51,1
DA:51,1
DA:51,1
DA:52,8
DA:53,2
DA:54,1
DA:55,1
DA:58,1
DA:58,1
DA:58,1
DA:58,1
DA:59,6
DA:60,2
DA:61,1
DA:62,1
DA:65,1
DA:65,1
DA:65,1
DA:65,1
DA:66,6
DA:67,2
DA:68,1
DA:69,1
DA:72,1
DA:72,1
DA:72,1
DA:72,1
DA:73,10
DA:74,2
DA:75,1
DA:76,1
DA:79,1
DA:79,1
DA:79,1
DA:79,1
DA:80,10
DA:81,2
DA:82,1
DA:83,1
DA:86,1
DA:86,1
DA:86,1
DA:86,1
DA:87,10
DA:88,2
DA:89,1
DA:90,1
DA:93,1
DA:93,1
DA:93,1
DA:93,1
DA:94,12
DA:95,2
DA:96,1
DA:97,1
end_of_record
SF:/usr/include/c++/11/bits/basic_string.h
FN:251,_ZNSt7__cxx1112basic_stringIcSt11char_traitsIcESaIcEE16_M_construct_auxIPcEEvT_S7_St12__false_type
FNDA:0,_ZNSt7__cxx1112basic_stringIcSt11char_traitsIcESaIcEE16_M_construct_auxIPcEEvT_S7_St12__false_type
FN:271,_ZNSt7__cxx1112basic_stringIcSt11char_traitsIcESaIcEE12_M_constructIPcEEvT_S7_
FNDA:0,_ZNSt7__cxx1112basic_stringIcSt11char_traitsIcESaIcEE12_M_constructIPcEEvT_S7_
FN:6248,_ZSteqIcSt11char_traitsIcESaIcEEbRKNSt7__cxx1112basic_stringIT_T0_T1_EEPKS5_
FNDA:0,_ZSteqIcSt11char_traitsIcESaIcEEbRKNSt7__cxx1112basic_stringIT_T0_T1_EEPKS5_
DA:251,0
DA:255,0
DA:256,0
DA:271,0
DA:274,0
DA:275,0
DA:6248,0
DA:6250,0
end_of_record
SF:/usr/include/c++/11/new
FN:174,_ZnwmPv
FNDA:0,_ZnwmPv
FN:180,_ZdlPvS_
FNDA:0,_ZdlPvS_
DA:174,0
DA:175,0
DA:180,0
end_of_record
SF:/usr/include/c++/11/ext/alloc_traits.h
FN:97,_ZN9__gnu_cxx14__alloc_traitsISaINSt7__cxx1112basic_stringIcSt11char_traitsIcESaIcEEEES6_E17_S_select_on_copyERKS7_
FNDA:8,_ZN9__gnu_cxx14__alloc_traitsISaINSt7__cxx1112basic_stringIcSt11char_traitsIcESaIcEEEES6_E17_S_select_on_copyERKS7_
FN:97,_ZN9__gnu_cxx14__alloc_traitsISaIcEcE17_S_select_on_copyERKS1_
FNDA:0,_ZN9__gnu_cxx14__alloc_traitsISaIcEcE17_S_select_on_copyERKS1_
DA:97,8
DA:98,8
DA:97,0
DA:98,0
end_of_record
SF:/usr/include/c++/11/bits/basic_string.tcc
FN:206,_ZNSt7__cxx1112basic_stringIcSt11char_traitsIcESaIcEE12_M_constructIPcEEvT_S7_St20forward_iterator_tag
FNDA:0,_ZNSt7__cxx1112basic_stringIcSt11char_traitsIcESaIcEE12_M_constructIPcEEvT_S7_St20forward_iterator_tag
FN:206,_ZNSt7__cxx1112basic_stringIcSt11char_traitsIcESaIcEE12_M_constructIPKcEEvT_S8_St20forward_iterator_tag
FNDA:0,_ZNSt7__cxx1112basic_stringIcSt11char_traitsIcESaIcEE12_M_constructIPKcEEvT_S8_St20forward_iterator_tag
DA:206,0
DA:211,0
DA:212,0
DA:215,0
DA:217,0
DA:219,0
DA:220,0
DA:225,0
DA:226,0
DA:228,0
DA:229,0
DA:232,0
DA:233,0
DA:206,0
DA:211,0
DA:212,0
DA:215,0
DA:217,0
DA:219,0
DA:220,0
DA:225,0
DA:226,0
DA:228,0
DA:229,0
DA:232,0
DA:233,0
end_of_record
SF:/usr/include/c++/11/bits/unique_ptr.h
FN:79,_ZNKSt14default_deleteINSt7__cxx1112basic_stringIcSt11char_traitsIcESaIcEEEEclEPS5_
FNDA:0,_ZNKSt14default_deleteINSt7__cxx1112basic_stringIcSt11char_traitsIcESaIcEEEEclEPS5_
FN:79,_ZNKSt14default_deleteINSt7__cxx1118basic_stringstreamIcSt11char_traitsIcESaIcEEEEclEPS5_
FNDA:72,_ZNKSt14default_deleteINSt7__cxx1118basic_stringstreamIcSt11char_traitsIcESaIcEEEEclEPS5_
FN:172,_ZNSt15__uniq_ptr_implINSt7__cxx1112basic_stringIcSt11char_traitsIcESaIcEEESt14default_deleteIS5_EE6_M_ptrEv
FNDA:14,_ZNSt15__uniq_ptr_implINSt7__cxx1112basic_stringIcSt11char_traitsIcESaIcEEESt14default_deleteIS5_EE6_M_ptrEv
FN:172,_ZNSt15__uniq_ptr_implINSt7__cxx1118basic_stringstreamIcSt11char_traitsIcESaIcEEESt14default_deleteIS5_EE6_M_ptrEv
FNDA:144,_ZNSt15__uniq_ptr_implINSt7__cxx1118basic_stringstreamIcSt11char_traitsIcESaIcEEESt14default_deleteIS5_EE6_M_ptrEv
FN:173,_ZNKSt15__uniq_ptr_implINSt7__cxx1112basic_stringIcSt11char_traitsIcESaIcEEESt14default_deleteIS5_EE6_M_ptrEv
FNDA:0,_ZNKSt15__uniq_ptr_implINSt7__cxx1112basic_stringIcSt11char_traitsIcESaIcEEESt14default_deleteIS5_EE6_M_ptrEv
FN:174,_ZNSt15__uniq_ptr_implINSt7__cxx1118basic_stringstreamIcSt11char_traitsIcESaIcEEESt14default_deleteIS5_EE10_M_deleterEv
FNDA:72,_ZNSt15__uniq_ptr_implINSt7__cxx1118basic_stringstreamIcSt11char_traitsIcESaIcEEESt14default_deleteIS5_EE10_M_deleterEv
FN:174,_ZNSt15__uniq_ptr_implINSt7__cxx1112basic_stringIcSt11char_traitsIcESaIcEEESt14default_deleteIS5_EE10_M_deleterEv
FNDA:0,_ZNSt15__uniq_ptr_implINSt7__cxx1112basic_stringIcSt11char_traitsIcESaIcEEESt14default_deleteIS5_EE10_M_deleterEv
FN:355,_ZNSt10unique_ptrINSt7__cxx1112basic_stringIcSt11char_traitsIcESaIcEEESt14default_deleteIS5_EED2Ev
FNDA:14,_ZNSt10unique_ptrINSt7__cxx1112basic_stringIcSt11char_traitsIcESaIcEEESt14default_deleteIS5_EED2Ev
FN:355,_ZNSt10unique_ptrINSt7__cxx1118basic_stringstreamIcSt11char_traitsIcESaIcEEESt14default_deleteIS5_EED2Ev
FNDA:72,_ZNSt10unique_ptrINSt7__cxx1118basic_stringstreamIcSt11char_traitsIcESaIcEEESt14default_deleteIS5_EED2Ev
FN:413,_ZNKSt10unique_ptrINSt7__cxx1112basic_stringIcSt11char_traitsIcESaIcEEESt14default_deleteIS5_EEptEv
FNDA:0,_ZNKSt10unique_ptrINSt7__cxx1112basic_stringIcSt11char_traitsIcESaIcEEESt14default_deleteIS5_EEptEv
FN:421,_ZNKSt10unique_ptrINSt7__cxx1112basic_stringIcSt11char_traitsIcESaIcEEESt14default_deleteIS5_EE3getEv
FNDA:0,_ZNKSt10unique_ptrINSt7__cxx1112basic_stringIcSt11char_traitsIcESaIcEEESt14default_deleteIS5_EE3getEv
FN:426,_ZNSt10unique_ptrINSt7__cxx1112basic_stringIcSt11char_traitsIcESaIcEEESt14default_deleteIS5_EE11get_deleterEv
FNDA:0,_ZNSt10unique_ptrINSt7__cxx1112basic_stringIcSt11char_traitsIcESaIcEEESt14default_deleteIS5_EE11get_deleterEv
FN:426,_ZNSt10unique_ptrINSt7__cxx1118basic_stringstreamIcSt11char_traitsIcESaIcEEESt14default_deleteIS5_EE11get_deleterEv
FNDA:72,_ZNSt10unique_ptrINSt7__cxx1118basic_stringstreamIcSt11char_traitsIcESaIcEEESt14default_deleteIS5_EE11get_deleterEv
FN:435,_ZNKSt10unique_ptrINSt7__cxx1112basic_stringIcSt11char_traitsIcESaIcEEESt14default_deleteIS5_EEcvbEv
FNDA:0,_ZNKSt10unique_ptrINSt7__cxx1112basic_stringIcSt11char_traitsIcESaIcEEESt14default_deleteIS5_EEcvbEv
FN:781,_ZStneINSt7__cxx1112basic_stringIcSt11char_traitsIcESaIcEEESt14default_deleteIS5_EEbRKSt10unique_ptrIT_T0_EDn
FNDA:0,_ZStneINSt7__cxx1112basic_stringIcSt11char_traitsIcESaIcEEESt14default_deleteIS5_EEbRKSt10unique_ptrIT_T0_EDn
DA:79,0
DA:85,0
DA:86,0
DA:79,72
DA:85,72
DA:86,72
DA:172,14
DA:172,144
DA:173,0
DA:174,72
DA:174,0
DA:355,14
DA:359,14
DA:360,14
DA:361,0
DA:362,14
DA:363,14
DA:355,72
DA:359,72
DA:360,72
DA:361,72
DA:362,72
DA:363,72
DA:413,0
DA:416,0
DA:421,0
DA:422,0
DA:426,0
DA:427,0
DA:426,72
DA:427,72
DA:435,0
DA:436,0
DA:781,0
DA:782,0
end_of_record
SF:/usr/include/c++/11/ext/new_allocator.h
FN:79,_ZN9__gnu_cxx13new_allocatorINSt7__cxx1112basic_stringIcSt11char_traitsIcESaIcEEEEC2Ev
FNDA:34,_ZN9__gnu_cxx13new_allocatorINSt7__cxx1112basic_stringIcSt11char_traitsIcESaIcEEEEC2Ev
FN:79,_ZN9__gnu_cxx13new_allocatorIcEC2Ev
FNDA:0,_ZN9__gnu_cxx13new_allocatorIcEC2Ev
FN:82,_ZN9__gnu_cxx13new_allocatorINSt7__cxx1112basic_stringIcSt11char_traitsIcESaIcEEEEC2ERKS7_
FNDA:46,_ZN9__gnu_cxx13new_allocatorINSt7__cxx1112basic_stringIcSt11char_traitsIcESaIcEEEEC2ERKS7_
FN:82,_ZN9__gnu_cxx13new_allocatorIcEC2ERKS1_
FNDA:0,_ZN9__gnu_cxx13new_allocatorIcEC2ERKS1_
FN:89,_ZN9__gnu_cxx13new_allocatorINSt7__cxx1112basic_stringIcSt11char_traitsIcESaIcEEEED2Ev
FNDA:80,_ZN9__gnu_cxx13new_allocatorINSt7__cxx1112basic_stringIcSt11char_traitsIcESaIcEEEED2Ev
FN:89,_ZN9__gnu_cxx13new_allocatorIcED2Ev
FNDA:0,_ZN9__gnu_cxx13new_allocatorIcED2Ev
FN:103,_ZN9__gnu_cxx13new_allocatorINSt7__cxx1112basic_stringIcSt11char_traitsIcESaIcEEEE8allocateEmPKv
FNDA:37,_ZN9__gnu_cxx13new_allocatorINSt7__cxx1112basic_stringIcSt11char_traitsIcESaIcEEEE8allocateEmPKv
FN:132,_ZN9__gnu_cxx13new_allocatorINSt7__cxx1112basic_stringIcSt11char_traitsIcESaIcEEEE10deallocateEPS6_m
FNDA:37,_ZN9__gnu_cxx13new_allocatorINSt7__cxx1112basic_stringIcSt11char_traitsIcESaIcEEEE10deallocateEPS6_m
FN:154,_ZNK9__gnu_cxx13new_allocatorINSt7__cxx1112basic_stringIcSt11char_traitsIcESaIcEEEE8max_sizeEv
FNDA:41,_ZNK9__gnu_cxx13new_allocatorINSt7__cxx1112basic_stringIcSt11char_traitsIcESaIcEEEE8max_sizeEv
FN:197,_ZNK9__gnu_cxx13new_allocatorINSt7__cxx1112basic_stringIcSt11char_traitsIcESaIcEEEE11_M_max_sizeEv
FNDA:78,_ZNK9__gnu_cxx13new_allocatorINSt7__cxx1112basic_stringIcSt11char_traitsIcESaIcEEEE11_M_max_sizeEv
DA:79,34
DA:79,0
DA:82,46
DA:82,0
DA:89,80
DA:89,0
DA:103,37
DA:111,37
DA:115,0
DA:116,0
DA:117,0
DA:127,37
DA:132,37
DA:145,37
DA:150,37
DA:154,41
DA:155,41
DA:197,78
DA:200,78
end_of_record
SF:/usr/include/c++/11/bits/stl_iterator.h
FN:1027,_ZN9__gnu_cxx17__normal_iteratorIPKNSt7__cxx1112basic_stringIcSt11char_traitsIcESaIcEEESt6vectorIS6_SaIS6_EEEC2ERKS8_
FNDA:0,_ZN9__gnu_cxx17__normal_iteratorIPKNSt7__cxx1112basic_stringIcSt11char_traitsIcESaIcEEESt6vectorIS6_SaIS6_EEEC2ERKS8_
FN:1042,_ZNK9__gnu_cxx17__normal_iteratorIPKNSt7__cxx1112basic_stringIcSt11char_traitsIcESaIcEEESt6vectorIS6_SaIS6_EEEdeEv
FNDA:0,_ZNK9__gnu_cxx17__normal_iteratorIPKNSt7__cxx1112basic_stringIcSt11char_traitsIcESaIcEEESt6vectorIS6_SaIS6_EEEdeEv
FN:1052,_ZN9__gnu_cxx17__normal_iteratorIPKNSt7__cxx1112basic_stringIcSt11char_traitsIcESaIcEEESt6vectorIS6_SaIS6_EEEppEv
FNDA:0,_ZN9__gnu_cxx17__normal_iteratorIPKNSt7__cxx1112basic_stringIcSt11char_traitsIcESaIcEEESt6vectorIS6_SaIS6_EEEppEv
FN:1105,_ZNK9__gnu_cxx17__normal_iteratorIPKNSt7__cxx1112basic_stringIcSt11char_traitsIcESaIcEEESt6vectorIS6_SaIS6_EEE4baseEv
FNDA:0,_ZNK9__gnu_cxx17__normal_iteratorIPKNSt7__cxx1112basic_stringIcSt11char_traitsIcESaIcEEESt6vectorIS6_SaIS6_EEE4baseEv
FN:1179,_ZN9__gnu_cxxneIPKNSt7__cxx1112basic_stringIcSt11char_traitsIcESaIcEEESt6vectorIS6_SaIS6_EEEEbRKNS_17__normal_iteratorIT_T0_EESH_
FNDA:0,_ZN9__gnu_cxxneIPKNSt7__cxx1112basic_stringIcSt11char_traitsIcESaIcEEESt6vectorIS6_SaIS6_EEEEbRKNS_17__normal_iteratorIT_T0_EESH_
DA:1027,0
DA:1028,0
DA:1042,0
DA:1043,0
DA:1052,0
DA:1054,0
DA:1055,0
DA:1105,0
DA:1106,0
DA:1179,0
DA:1182,0
end_of_record
SF:/usr/include/c++/11/bits/stl_construct.h
FN:109,_ZSt10_ConstructINSt7__cxx1112basic_stringIcSt11char_traitsIcESaIcEEEJRKS5_EEvPT_DpOT0_
FNDA:119,_ZSt10_ConstructINSt7__cxx1112basic_stringIcSt11char_traitsIcESaIcEEEJRKS5_EEvPT_DpOT0_
FN:146,_ZSt8_DestroyINSt7__cxx1112basic_stringIcSt11char_traitsIcESaIcEEEEvPT_
FNDA:139,_ZSt8_DestroyINSt7__cxx1112basic_stringIcSt11char_traitsIcESaIcEEEEvPT_
FN:160,_ZNSt12_Destroy_auxILb0EE9__destroyIPNSt7__cxx1112basic_stringIcSt11char_traitsIcESaIcEEEEEvT_S9_
FNDA:43,_ZNSt12_Destroy_auxILb0EE9__destroyIPNSt7__cxx1112basic_stringIcSt11char_traitsIcESaIcEEEEEvT_S9_
FN:182,_ZSt8_DestroyIPNSt7__cxx1112basic_stringIcSt11char_traitsIcESaIcEEEEvT_S7_
FNDA:43,_ZSt8_DestroyIPNSt7__cxx1112basic_stringIcSt11char_traitsIcESaIcEEEEvT_S7_
DA:109,119
DA:119,119
DA:120,119
DA:146,139
DA:151,139
DA:153,139
DA:160,43
DA:162,182
DA:163,139
DA:164,43
DA:182,43
DA:196,43
DA:197,43
end_of_record
SF:/usr/include/c++/11/ext/type_traits.h
FN:152,_ZN9__gnu_cxx17__is_null_pointerIcEEbPT_
FNDA:0,_ZN9__gnu_cxx17__is_null_pointerIcEEbPT_
FN:152,_ZN9__gnu_cxx17__is_null_pointerIKcEEbPT_
FNDA:0,_ZN9__gnu_cxx17__is_null_pointerIKcEEbPT_
DA:152,0
DA:153,0
DA:152,0
DA:153,0
end_of_record
